	.file	"calc_map_unsync_imp_chunk.cpp"
	.text
	.section	.text._ZnwmPv,"axG",@progbits,_ZnwmPv,comdat
	.weak	_ZnwmPv
	.type	_ZnwmPv, @function
_ZnwmPv:
.LFB38:
	.cfi_startproc
	endbr64
	pushq	%rbp
	.cfi_def_cfa_offset 16
	.cfi_offset 6, -16
	movq	%rsp, %rbp
	.cfi_def_cfa_register 6
	movq	%rdi, -8(%rbp)
	movq	%rsi, -16(%rbp)
	movq	-16(%rbp), %rax
	popq	%rbp
	.cfi_def_cfa 7, 8
	ret
	.cfi_endproc
.LFE38:
	.size	_ZnwmPv, .-_ZnwmPv
	.section	.text._ZdlPvS_,"axG",@progbits,_ZdlPvS_,comdat
	.weak	_ZdlPvS_
	.type	_ZdlPvS_, @function
_ZdlPvS_:
.LFB40:
	.cfi_startproc
	endbr64
	pushq	%rbp
	.cfi_def_cfa_offset 16
	.cfi_offset 6, -16
	movq	%rsp, %rbp
	.cfi_def_cfa_register 6
	movq	%rdi, -8(%rbp)
	movq	%rsi, -16(%rbp)
	nop
	popq	%rbp
	.cfi_def_cfa 7, 8
	ret
	.cfi_endproc
.LFE40:
	.size	_ZdlPvS_, .-_ZdlPvS_
	.weak	_ZSt19piecewise_construct
	.section	.rodata._ZSt19piecewise_construct,"aG",@progbits,_ZSt19piecewise_construct,comdat
	.type	_ZSt19piecewise_construct, @gnu_unique_object
	.size	_ZSt19piecewise_construct, 1
_ZSt19piecewise_construct:
	.zero	1
	.section	.text._ZSt17__size_to_integerm,"axG",@progbits,_ZSt17__size_to_integerm,comdat
	.weak	_ZSt17__size_to_integerm
	.type	_ZSt17__size_to_integerm, @function
_ZSt17__size_to_integerm:
.LFB371:
	.cfi_startproc
	endbr64
	pushq	%rbp
	.cfi_def_cfa_offset 16
	.cfi_offset 6, -16
	movq	%rsp, %rbp
	.cfi_def_cfa_register 6
	movq	%rdi, -8(%rbp)
	movq	-8(%rbp), %rax
	popq	%rbp
	.cfi_def_cfa 7, 8
	ret
	.cfi_endproc
.LFE371:
	.size	_ZSt17__size_to_integerm, .-_ZSt17__size_to_integerm
	.section	.text._ZNSt11char_traitsIcE2eqERKcS2_,"axG",@progbits,_ZNSt11char_traitsIcE2eqERKcS2_,comdat
	.weak	_ZNSt11char_traitsIcE2eqERKcS2_
	.type	_ZNSt11char_traitsIcE2eqERKcS2_, @function
_ZNSt11char_traitsIcE2eqERKcS2_:
.LFB446:
	.cfi_startproc
	endbr64
	pushq	%rbp
	.cfi_def_cfa_offset 16
	.cfi_offset 6, -16
	movq	%rsp, %rbp
	.cfi_def_cfa_register 6
	movq	%rdi, -8(%rbp)
	movq	%rsi, -16(%rbp)
	movq	-8(%rbp), %rax
	movzbl	(%rax), %edx
	movq	-16(%rbp), %rax
	movzbl	(%rax), %eax
	cmpb	%al, %dl
	sete	%al
	popq	%rbp
	.cfi_def_cfa 7, 8
	ret
	.cfi_endproc
.LFE446:
	.size	_ZNSt11char_traitsIcE2eqERKcS2_, .-_ZNSt11char_traitsIcE2eqERKcS2_
	.section	.text._ZNSt11char_traitsIcE6lengthEPKc,"axG",@progbits,_ZNSt11char_traitsIcE6lengthEPKc,comdat
	.weak	_ZNSt11char_traitsIcE6lengthEPKc
	.type	_ZNSt11char_traitsIcE6lengthEPKc, @function
_ZNSt11char_traitsIcE6lengthEPKc:
.LFB450:
	.cfi_startproc
	endbr64
	pushq	%rbp
	.cfi_def_cfa_offset 16
	.cfi_offset 6, -16
	movq	%rsp, %rbp
	.cfi_def_cfa_register 6
	subq	$32, %rsp
	movq	%rdi, -24(%rbp)
	movq	-24(%rbp), %rax
	movq	%rax, -8(%rbp)
	movl	$0, %eax
	testb	%al, %al
	je	.L10
	movq	-24(%rbp), %rax
	movq	%rax, %rdi
	call	_ZN9__gnu_cxx11char_traitsIcE6lengthEPKc
	jmp	.L11
.L10:
	movq	-24(%rbp), %rax
	movq	%rax, %rdi
	call	strlen@PLT
	nop
.L11:
	leave
	.cfi_def_cfa 7, 8
	ret
	.cfi_endproc
.LFE450:
	.size	_ZNSt11char_traitsIcE6lengthEPKc, .-_ZNSt11char_traitsIcE6lengthEPKc
	.section	.rodata
	.align 8
.LC0:
	.string	"%s: __pos (which is %zu) > __size (which is %zu)"
	.section	.text._ZSt10__sv_checkmmPKc,"axG",@progbits,_ZSt10__sv_checkmmPKc,comdat
	.weak	_ZSt10__sv_checkmmPKc
	.type	_ZSt10__sv_checkmmPKc, @function
_ZSt10__sv_checkmmPKc:
.LFB809:
	.cfi_startproc
	endbr64
	pushq	%rbp
	.cfi_def_cfa_offset 16
	.cfi_offset 6, -16
	movq	%rsp, %rbp
	.cfi_def_cfa_register 6
	subq	$32, %rsp
	movq	%rdi, -8(%rbp)
	movq	%rsi, -16(%rbp)
	movq	%rdx, -24(%rbp)
	movq	-16(%rbp), %rax
	cmpq	-8(%rbp), %rax
	jbe	.L13
	movq	-8(%rbp), %rcx
	movq	-16(%rbp), %rdx
	movq	-24(%rbp), %rax
	movq	%rax, %rsi
	leaq	.LC0(%rip), %rax
	movq	%rax, %rdi
	movl	$0, %eax
	call	_ZSt24__throw_out_of_range_fmtPKcz@PLT
.L13:
	movq	-16(%rbp), %rax
	leave
	.cfi_def_cfa 7, 8
	ret
	.cfi_endproc
.LFE809:
	.size	_ZSt10__sv_checkmmPKc, .-_ZSt10__sv_checkmmPKc
	.section	.rodata
.LC1:
	.string	"stof"
	.section	.text._ZNSt7__cxx114stofERKNS_12basic_stringIcSt11char_traitsIcESaIcEEEPm,"axG",@progbits,_ZNSt7__cxx114stofERKNS_12basic_stringIcSt11char_traitsIcESaIcEEEPm,comdat
	.weak	_ZNSt7__cxx114stofERKNS_12basic_stringIcSt11char_traitsIcESaIcEEEPm
	.type	_ZNSt7__cxx114stofERKNS_12basic_stringIcSt11char_traitsIcESaIcEEEPm, @function
_ZNSt7__cxx114stofERKNS_12basic_stringIcSt11char_traitsIcESaIcEEEPm:
.LFB1138:
	.cfi_startproc
	endbr64
	pushq	%rbp
	.cfi_def_cfa_offset 16
	.cfi_offset 6, -16
	movq	%rsp, %rbp
	.cfi_def_cfa_register 6
	subq	$16, %rsp
	movq	%rdi, -8(%rbp)
	movq	%rsi, -16(%rbp)
	movq	-8(%rbp), %rax
	movq	%rax, %rdi
	call	_ZNKSt7__cxx1112basic_stringIcSt11char_traitsIcESaIcEE5c_strEv@PLT
	movq	%rax, %rdx
	movq	-16(%rbp), %rax
	movq	%rax, %rcx
	leaq	.LC1(%rip), %rax
	movq	%rax, %rsi
	movq	strtof@GOTPCREL(%rip), %rax
	movq	%rax, %rdi
	call	_ZN9__gnu_cxx6__stoaIffcJEEET0_PFT_PKT1_PPS3_DpT2_EPKcS5_PmS9_
	leave
	.cfi_def_cfa 7, 8
	ret
	.cfi_endproc
.LFE1138:
	.size	_ZNSt7__cxx114stofERKNS_12basic_stringIcSt11char_traitsIcESaIcEEEPm, .-_ZNSt7__cxx114stofERKNS_12basic_stringIcSt11char_traitsIcESaIcEEEPm
	.local	_ZStL8__ioinit
	.comm	_ZStL8__ioinit,1,1
	.section	.text._ZNSt15_Rb_tree_headerC2Ev,"axG",@progbits,_ZNSt15_Rb_tree_headerC5Ev,comdat
	.align 2
	.weak	_ZNSt15_Rb_tree_headerC2Ev
	.type	_ZNSt15_Rb_tree_headerC2Ev, @function
_ZNSt15_Rb_tree_headerC2Ev:
.LFB2266:
	.cfi_startproc
	endbr64
	pushq	%rbp
	.cfi_def_cfa_offset 16
	.cfi_offset 6, -16
	movq	%rsp, %rbp
	.cfi_def_cfa_register 6
	subq	$16, %rsp
	movq	%rdi, -8(%rbp)
	movq	-8(%rbp), %rax
	movl	$0, (%rax)
	movq	-8(%rbp), %rax
	movq	%rax, %rdi
	call	_ZNSt15_Rb_tree_header8_M_resetEv
	nop
	leave
	.cfi_def_cfa 7, 8
	ret
	.cfi_endproc
.LFE2266:
	.size	_ZNSt15_Rb_tree_headerC2Ev, .-_ZNSt15_Rb_tree_headerC2Ev
	.weak	_ZNSt15_Rb_tree_headerC1Ev
	.set	_ZNSt15_Rb_tree_headerC1Ev,_ZNSt15_Rb_tree_headerC2Ev
	.section	.text._ZNSt15_Rb_tree_header8_M_resetEv,"axG",@progbits,_ZNSt15_Rb_tree_header8_M_resetEv,comdat
	.align 2
	.weak	_ZNSt15_Rb_tree_header8_M_resetEv
	.type	_ZNSt15_Rb_tree_header8_M_resetEv, @function
_ZNSt15_Rb_tree_header8_M_resetEv:
.LFB2272:
	.cfi_startproc
	endbr64
	pushq	%rbp
	.cfi_def_cfa_offset 16
	.cfi_offset 6, -16
	movq	%rsp, %rbp
	.cfi_def_cfa_register 6
	movq	%rdi, -8(%rbp)
	movq	-8(%rbp), %rax
	movq	$0, 8(%rax)
	movq	-8(%rbp), %rdx
	movq	-8(%rbp), %rax
	movq	%rdx, 16(%rax)
	movq	-8(%rbp), %rdx
	movq	-8(%rbp), %rax
	movq	%rdx, 24(%rax)
	movq	-8(%rbp), %rax
	movq	$0, 32(%rax)
	nop
	popq	%rbp
	.cfi_def_cfa 7, 8
	ret
	.cfi_endproc
.LFE2272:
	.size	_ZNSt15_Rb_tree_header8_M_resetEv, .-_ZNSt15_Rb_tree_header8_M_resetEv
	.section	.text._ZSt4ceilf,"axG",@progbits,_ZSt4ceilf,comdat
	.weak	_ZSt4ceilf
	.type	_ZSt4ceilf, @function
_ZSt4ceilf:
.LFB2900:
	.cfi_startproc
	endbr64
	pushq	%rbp
	.cfi_def_cfa_offset 16
	.cfi_offset 6, -16
	movq	%rsp, %rbp
	.cfi_def_cfa_register 6
	movss	%xmm0, -4(%rbp)
	movss	-4(%rbp), %xmm0
	movss	.LC2(%rip), %xmm1
	movaps	%xmm0, %xmm2
	movss	.LC3(%rip), %xmm0
	movaps	%xmm0, %xmm3
	movaps	%xmm2, %xmm0
	andps	%xmm3, %xmm0
	ucomiss	%xmm0, %xmm1
	jbe	.L20
	cvttss2sil	%xmm2, %eax
	pxor	%xmm0, %xmm0
	cvtsi2ssl	%eax, %xmm0
	movss	.LC4(%rip), %xmm4
	movaps	%xmm2, %xmm1
	cmpnless	%xmm0, %xmm1
	andps	%xmm4, %xmm1
	addss	%xmm1, %xmm0
	andnps	%xmm2, %xmm3
	movaps	%xmm3, %xmm1
	orps	%xmm1, %xmm0
	movaps	%xmm0, %xmm2
.L20:
	movaps	%xmm2, %xmm0
	popq	%rbp
	.cfi_def_cfa 7, 8
	ret
	.cfi_endproc
.LFE2900:
	.size	_ZSt4ceilf, .-_ZSt4ceilf
	.section	.rodata
	.align 4
	.type	_ZN9__gnu_cxxL21__default_lock_policyE, @object
	.size	_ZN9__gnu_cxxL21__default_lock_policyE, 4
_ZN9__gnu_cxxL21__default_lock_policyE:
	.long	2
	.section	.text._ZNSt10filesystem7__cxx114path5_ListD2Ev,"axG",@progbits,_ZNSt10filesystem7__cxx114path5_ListD5Ev,comdat
	.align 2
	.weak	_ZNSt10filesystem7__cxx114path5_ListD2Ev
	.type	_ZNSt10filesystem7__cxx114path5_ListD2Ev, @function
_ZNSt10filesystem7__cxx114path5_ListD2Ev:
.LFB4257:
	.cfi_startproc
	endbr64
	pushq	%rbp
	.cfi_def_cfa_offset 16
	.cfi_offset 6, -16
	movq	%rsp, %rbp
	.cfi_def_cfa_register 6
	subq	$16, %rsp
	movq	%rdi, -8(%rbp)
	movq	-8(%rbp), %rax
	movq	%rax, %rdi
	call	_ZNSt10unique_ptrINSt10filesystem7__cxx114path5_List5_ImplENS3_13_Impl_deleterEED1Ev
	nop
	leave
	.cfi_def_cfa 7, 8
	ret
	.cfi_endproc
.LFE4257:
	.size	_ZNSt10filesystem7__cxx114path5_ListD2Ev, .-_ZNSt10filesystem7__cxx114path5_ListD2Ev
	.weak	_ZNSt10filesystem7__cxx114path5_ListD1Ev
	.set	_ZNSt10filesystem7__cxx114path5_ListD1Ev,_ZNSt10filesystem7__cxx114path5_ListD2Ev
	.section	.text._ZNSt10filesystem7__cxx114pathD2Ev,"axG",@progbits,_ZNSt10filesystem7__cxx114pathD5Ev,comdat
	.align 2
	.weak	_ZNSt10filesystem7__cxx114pathD2Ev
	.type	_ZNSt10filesystem7__cxx114pathD2Ev, @function
_ZNSt10filesystem7__cxx114pathD2Ev:
.LFB4259:
	.cfi_startproc
	endbr64
	pushq	%rbp
	.cfi_def_cfa_offset 16
	.cfi_offset 6, -16
	movq	%rsp, %rbp
	.cfi_def_cfa_register 6
	subq	$16, %rsp
	movq	%rdi, -8(%rbp)
	movq	-8(%rbp), %rax
	addq	$32, %rax
	movq	%rax, %rdi
	call	_ZNSt10filesystem7__cxx114path5_ListD1Ev
	movq	-8(%rbp), %rax
	movq	%rax, %rdi
	call	_ZNSt7__cxx1112basic_stringIcSt11char_traitsIcESaIcEED1Ev@PLT
	nop
	leave
	.cfi_def_cfa 7, 8
	ret
	.cfi_endproc
.LFE4259:
	.size	_ZNSt10filesystem7__cxx114pathD2Ev, .-_ZNSt10filesystem7__cxx114pathD2Ev
	.weak	_ZNSt10filesystem7__cxx114pathD1Ev
	.set	_ZNSt10filesystem7__cxx114pathD1Ev,_ZNSt10filesystem7__cxx114pathD2Ev
	.section	.text._ZNKSt10filesystem7__cxx114path5c_strEv,"axG",@progbits,_ZNKSt10filesystem7__cxx114path5c_strEv,comdat
	.align 2
	.weak	_ZNKSt10filesystem7__cxx114path5c_strEv
	.type	_ZNKSt10filesystem7__cxx114path5c_strEv, @function
_ZNKSt10filesystem7__cxx114path5c_strEv:
.LFB4295:
	.cfi_startproc
	endbr64
	pushq	%rbp
	.cfi_def_cfa_offset 16
	.cfi_offset 6, -16
	movq	%rsp, %rbp
	.cfi_def_cfa_register 6
	subq	$16, %rsp
	movq	%rdi, -8(%rbp)
	movq	-8(%rbp), %rax
	movq	%rax, %rdi
	call	_ZNKSt7__cxx1112basic_stringIcSt11char_traitsIcESaIcEE5c_strEv@PLT
	leave
	.cfi_def_cfa 7, 8
	ret
	.cfi_endproc
.LFE4295:
	.size	_ZNKSt10filesystem7__cxx114path5c_strEv, .-_ZNKSt10filesystem7__cxx114path5c_strEv
	.section	.text._ZNKSt10filesystem11file_status4typeEv,"axG",@progbits,_ZNKSt10filesystem11file_status4typeEv,comdat
	.align 2
	.weak	_ZNKSt10filesystem11file_status4typeEv
	.type	_ZNKSt10filesystem11file_status4typeEv, @function
_ZNKSt10filesystem11file_status4typeEv:
.LFB4397:
	.cfi_startproc
	endbr64
	pushq	%rbp
	.cfi_def_cfa_offset 16
	.cfi_offset 6, -16
	movq	%rsp, %rbp
	.cfi_def_cfa_register 6
	movq	%rdi, -8(%rbp)
	movq	-8(%rbp), %rax
	movzbl	(%rax), %eax
	popq	%rbp
	.cfi_def_cfa 7, 8
	ret
	.cfi_endproc
.LFE4397:
	.size	_ZNKSt10filesystem11file_status4typeEv, .-_ZNKSt10filesystem11file_status4typeEv
	.section	.text._ZNSt10filesystem6existsENS_11file_statusE,"axG",@progbits,_ZNSt10filesystem6existsENS_11file_statusE,comdat
	.weak	_ZNSt10filesystem6existsENS_11file_statusE
	.type	_ZNSt10filesystem6existsENS_11file_statusE, @function
_ZNSt10filesystem6existsENS_11file_statusE:
.LFB4542:
	.cfi_startproc
	endbr64
	pushq	%rbp
	.cfi_def_cfa_offset 16
	.cfi_offset 6, -16
	movq	%rsp, %rbp
	.cfi_def_cfa_register 6
	subq	$16, %rsp
	movq	%rdi, -8(%rbp)
	movq	-8(%rbp), %rax
	movq	%rax, %rdi
	call	_ZNSt10filesystem12status_knownENS_11file_statusE
	testb	%al, %al
	je	.L29
	leaq	-8(%rbp), %rax
	movq	%rax, %rdi
	call	_ZNKSt10filesystem11file_status4typeEv
	cmpb	$-1, %al
	je	.L29
	movl	$1, %eax
	jmp	.L30
.L29:
	movl	$0, %eax
.L30:
	leave
	.cfi_def_cfa 7, 8
	ret
	.cfi_endproc
.LFE4542:
	.size	_ZNSt10filesystem6existsENS_11file_statusE, .-_ZNSt10filesystem6existsENS_11file_statusE
	.section	.text._ZNSt10filesystem6existsERKNS_7__cxx114pathE,"axG",@progbits,_ZNSt10filesystem6existsERKNS_7__cxx114pathE,comdat
	.weak	_ZNSt10filesystem6existsERKNS_7__cxx114pathE
	.type	_ZNSt10filesystem6existsERKNS_7__cxx114pathE, @function
_ZNSt10filesystem6existsERKNS_7__cxx114pathE:
.LFB4543:
	.cfi_startproc
	endbr64
	pushq	%rbp
	.cfi_def_cfa_offset 16
	.cfi_offset 6, -16
	movq	%rsp, %rbp
	.cfi_def_cfa_register 6
	subq	$16, %rsp
	movq	%rdi, -8(%rbp)
	movq	-8(%rbp), %rax
	movq	%rax, %rdi
	call	_ZNSt10filesystem6statusERKNS_7__cxx114pathE@PLT
	movq	%rax, %rdi
	call	_ZNSt10filesystem6existsENS_11file_statusE
	leave
	.cfi_def_cfa 7, 8
	ret
	.cfi_endproc
.LFE4543:
	.size	_ZNSt10filesystem6existsERKNS_7__cxx114pathE, .-_ZNSt10filesystem6existsERKNS_7__cxx114pathE
	.section	.text._ZNSt10filesystem12status_knownENS_11file_statusE,"axG",@progbits,_ZNSt10filesystem12status_knownENS_11file_statusE,comdat
	.weak	_ZNSt10filesystem12status_knownENS_11file_statusE
	.type	_ZNSt10filesystem12status_knownENS_11file_statusE, @function
_ZNSt10filesystem12status_knownENS_11file_statusE:
.LFB4572:
	.cfi_startproc
	endbr64
	pushq	%rbp
	.cfi_def_cfa_offset 16
	.cfi_offset 6, -16
	movq	%rsp, %rbp
	.cfi_def_cfa_register 6
	subq	$16, %rsp
	movq	%rdi, -8(%rbp)
	leaq	-8(%rbp), %rax
	movq	%rax, %rdi
	call	_ZNKSt10filesystem11file_status4typeEv
	testb	%al, %al
	setne	%al
	leave
	.cfi_def_cfa 7, 8
	ret
	.cfi_endproc
.LFE4572:
	.size	_ZNSt10filesystem12status_knownENS_11file_statusE, .-_ZNSt10filesystem12status_knownENS_11file_statusE
	.text
	.globl	_Z22round_to_nearest_tenthf
	.type	_Z22round_to_nearest_tenthf, @function
_Z22round_to_nearest_tenthf:
.LFB4573:
	.cfi_startproc
	endbr64
	pushq	%rbp
	.cfi_def_cfa_offset 16
	.cfi_offset 6, -16
	movq	%rsp, %rbp
	.cfi_def_cfa_register 6
	subq	$16, %rsp
	movss	%xmm0, -4(%rbp)
	movss	-4(%rbp), %xmm1
	movss	.LC5(%rip), %xmm0
	mulss	%xmm0, %xmm1
	movd	%xmm1, %eax
	movd	%eax, %xmm0
	call	_ZSt4ceilf
	movd	%xmm0, %eax
	movss	.LC5(%rip), %xmm0
	movd	%eax, %xmm1
	divss	%xmm0, %xmm1
	movaps	%xmm1, %xmm0
	leave
	.cfi_def_cfa 7, 8
	ret
	.cfi_endproc
.LFE4573:
	.size	_Z22round_to_nearest_tenthf, .-_Z22round_to_nearest_tenthf
	.globl	_Z11processLineRKNSt7__cxx1112basic_stringIcSt11char_traitsIcESaIcEEERSt3mapIS4_St6vectorIfSaIfEESt4lessIS4_ESaISt4pairIS5_SA_EEE
	.type	_Z11processLineRKNSt7__cxx1112basic_stringIcSt11char_traitsIcESaIcEEERSt3mapIS4_St6vectorIfSaIfEESt4lessIS4_ESaISt4pairIS5_SA_EEE, @function
_Z11processLineRKNSt7__cxx1112basic_stringIcSt11char_traitsIcESaIcEEERSt3mapIS4_St6vectorIfSaIfEESt4lessIS4_ESaISt4pairIS5_SA_EEE:
.LFB4574:
	.cfi_startproc
	.cfi_personality 0x9b,DW.ref.__gxx_personality_v0
	.cfi_lsda 0x1b,.LLSDA4574
	endbr64
	pushq	%rbp
	.cfi_def_cfa_offset 16
	.cfi_offset 6, -16
	movq	%rsp, %rbp
	.cfi_def_cfa_register 6
	pushq	%r13
	pushq	%r12
	pushq	%rbx
	subq	$584, %rsp
	.cfi_offset 13, -24
	.cfi_offset 12, -32
	.cfi_offset 3, -40
	movq	%rdi, -584(%rbp)
	movq	%rsi, -592(%rbp)
	movq	%fs:40, %rax
	movq	%rax, -40(%rbp)
	xorl	%eax, %eax
	leaq	-496(%rbp), %rax
	movq	%rax, %rdi
	call	_ZNSt7__cxx1112basic_stringIcSt11char_traitsIcESaIcEEC1Ev@PLT
	leaq	-464(%rbp), %rax
	movq	%rax, %rdi
	call	_ZNSt7__cxx1112basic_stringIcSt11char_traitsIcESaIcEEC1Ev@PLT
	movq	-584(%rbp), %rcx
	leaq	-432(%rbp), %rax
	movl	$8, %edx
	movq	%rcx, %rsi
	movq	%rax, %rdi
.LEHB0:
	call	_ZNSt7__cxx1119basic_istringstreamIcSt11char_traitsIcESaIcEEC1ERKNS_12basic_stringIcS2_S3_EESt13_Ios_Openmode@PLT
.LEHE0:
	leaq	-496(%rbp), %rcx
	leaq	-432(%rbp), %rax
	movl	$59, %edx
	movq	%rcx, %rsi
	movq	%rax, %rdi
.LEHB1:
	call	_ZSt7getlineIcSt11char_traitsIcESaIcEERSt13basic_istreamIT_T0_ES7_RNSt7__cxx1112basic_stringIS4_S5_T1_EES4_@PLT
	movq	(%rax), %rdx
	subq	$24, %rdx
	movq	(%rdx), %rdx
	addq	%rdx, %rax
	movq	%rax, %rdi
	call	_ZNKSt9basic_iosIcSt11char_traitsIcEEcvbEv@PLT
	testb	%al, %al
	je	.L39
	leaq	-464(%rbp), %rdx
	leaq	-432(%rbp), %rax
	movq	%rdx, %rsi
	movq	%rax, %rdi
	call	_ZSt7getlineIcSt11char_traitsIcESaIcEERSt13basic_istreamIT_T0_ES7_RNSt7__cxx1112basic_stringIS4_S5_T1_EE@PLT
	movq	(%rax), %rdx
	subq	$24, %rdx
	movq	(%rdx), %rdx
	addq	%rdx, %rax
	movq	%rax, %rdi
	call	_ZNKSt9basic_iosIcSt11char_traitsIcEEcvbEv@PLT
	testb	%al, %al
	je	.L39
	movl	$1, %eax
	jmp	.L40
.L39:
	movl	$0, %eax
.L40:
	testb	%al, %al
	je	.L41
	leaq	-464(%rbp), %rax
	movl	$0, %esi
	movq	%rax, %rdi
	call	_ZNSt7__cxx114stofERKNS_12basic_stringIcSt11char_traitsIcESaIcEEEPm
	movd	%xmm0, %eax
	movl	%eax, -564(%rbp)
	leaq	-496(%rbp), %rdx
	movq	-592(%rbp), %rax
	movq	%rdx, %rsi
	movq	%rax, %rdi
	call	_ZNSt3mapINSt7__cxx1112basic_stringIcSt11char_traitsIcESaIcEEESt6vectorIfSaIfEESt4lessIS5_ESaISt4pairIKS5_S8_EEE4findERSC_
.LEHE1:
	movq	%rax, -560(%rbp)
	movq	-592(%rbp), %rax
	movq	%rax, %rdi
	call	_ZNSt3mapINSt7__cxx1112basic_stringIcSt11char_traitsIcESaIcEEESt6vectorIfSaIfEESt4lessIS5_ESaISt4pairIKS5_S8_EEE3endEv
	movq	%rax, -544(%rbp)
	leaq	-544(%rbp), %rdx
	leaq	-560(%rbp), %rax
	movq	%rdx, %rsi
	movq	%rax, %rdi
	call	_ZStneRKSt17_Rb_tree_iteratorISt4pairIKNSt7__cxx1112basic_stringIcSt11char_traitsIcESaIcEEESt6vectorIfSaIfEEEESE_
	testb	%al, %al
	je	.L42
	leaq	-560(%rbp), %rax
	movq	%rax, %rdi
	call	_ZNKSt17_Rb_tree_iteratorISt4pairIKNSt7__cxx1112basic_stringIcSt11char_traitsIcESaIcEEESt6vectorIfSaIfEEEEptEv
	addq	$32, %rax
	movq	%rax, -552(%rbp)
	movq	-552(%rbp), %rax
	movl	$0, %esi
	movq	%rax, %rdi
	call	_ZNSt6vectorIfSaIfEEixEm
	movss	(%rax), %xmm1
	movss	-564(%rbp), %xmm0
	addss	%xmm1, %xmm0
	movss	%xmm0, (%rax)
	movq	-552(%rbp), %rax
	movl	$1, %esi
	movq	%rax, %rdi
	call	_ZNSt6vectorIfSaIfEEixEm
	movq	%rax, %rdx
	leaq	-564(%rbp), %rax
	movq	%rax, %rsi
	movq	%rdx, %rdi
	call	_ZSt3minIfERKT_S2_S2_
	movss	(%rax), %xmm2
	movss	%xmm2, -596(%rbp)
	movq	-552(%rbp), %rax
	movl	$1, %esi
	movq	%rax, %rdi
	call	_ZNSt6vectorIfSaIfEEixEm
	movss	-596(%rbp), %xmm2
	movss	%xmm2, (%rax)
	movq	-552(%rbp), %rax
	movl	$2, %esi
	movq	%rax, %rdi
	call	_ZNSt6vectorIfSaIfEEixEm
	movq	%rax, %rdx
	leaq	-564(%rbp), %rax
	movq	%rax, %rsi
	movq	%rdx, %rdi
	call	_ZSt3maxIfERKT_S2_S2_
	movss	(%rax), %xmm3
	movss	%xmm3, -596(%rbp)
	movq	-552(%rbp), %rax
	movl	$2, %esi
	movq	%rax, %rdi
	call	_ZNSt6vectorIfSaIfEEixEm
	movss	-596(%rbp), %xmm3
	movss	%xmm3, (%rax)
	movq	-552(%rbp), %rax
	movl	$3, %esi
	movq	%rax, %rdi
	call	_ZNSt6vectorIfSaIfEEixEm
	movss	(%rax), %xmm1
	movss	.LC4(%rip), %xmm0
	addss	%xmm1, %xmm0
	movss	%xmm0, (%rax)
	jmp	.L41
.L42:
	movss	-564(%rbp), %xmm0
	movss	%xmm0, -512(%rbp)
	movss	-564(%rbp), %xmm0
	movss	%xmm0, -508(%rbp)
	movss	-564(%rbp), %xmm0
	movss	%xmm0, -504(%rbp)
	movss	.LC4(%rip), %xmm0
	movss	%xmm0, -500(%rbp)
	leaq	-512(%rbp), %rax
	movq	%rax, %r12
	movl	$4, %r13d
	leaq	-565(%rbp), %rax
	movq	%rax, %rdi
	call	_ZNSaIfEC1Ev
	leaq	-565(%rbp), %rdx
	movq	%r12, %rsi
	movq	%r13, %rdi
	movq	%r12, %rcx
	movq	%r13, %rbx
	movq	%rbx, %rdi
	leaq	-544(%rbp), %rax
	movq	%rdx, %rcx
	movq	%rdi, %rdx
	movq	%rax, %rdi
.LEHB2:
	call	_ZNSt6vectorIfSaIfEEC1ESt16initializer_listIfERKS0_
.LEHE2:
	leaq	-496(%rbp), %rdx
	movq	-592(%rbp), %rax
	movq	%rdx, %rsi
	movq	%rax, %rdi
.LEHB3:
	call	_ZNSt3mapINSt7__cxx1112basic_stringIcSt11char_traitsIcESaIcEEESt6vectorIfSaIfEESt4lessIS5_ESaISt4pairIKS5_S8_EEEixERSC_
.LEHE3:
	movq	%rax, %rdx
	leaq	-544(%rbp), %rax
	movq	%rax, %rsi
	movq	%rdx, %rdi
	call	_ZNSt6vectorIfSaIfEEaSEOS1_
	leaq	-544(%rbp), %rax
	movq	%rax, %rdi
	call	_ZNSt6vectorIfSaIfEED1Ev
	leaq	-565(%rbp), %rax
	movq	%rax, %rdi
	call	_ZNSaIfED1Ev
.L41:
	leaq	-432(%rbp), %rax
	movq	%rax, %rdi
	call	_ZNSt7__cxx1119basic_istringstreamIcSt11char_traitsIcESaIcEED1Ev@PLT
	leaq	-464(%rbp), %rax
	movq	%rax, %rdi
	call	_ZNSt7__cxx1112basic_stringIcSt11char_traitsIcESaIcEED1Ev@PLT
	leaq	-496(%rbp), %rax
	movq	%rax, %rdi
	call	_ZNSt7__cxx1112basic_stringIcSt11char_traitsIcESaIcEED1Ev@PLT
	movq	-40(%rbp), %rax
	subq	%fs:40, %rax
	je	.L48
	jmp	.L53
.L52:
	endbr64
	movq	%rax, %rbx
	leaq	-544(%rbp), %rax
	movq	%rax, %rdi
	call	_ZNSt6vectorIfSaIfEED1Ev
	jmp	.L45
.L51:
	endbr64
	movq	%rax, %rbx
.L45:
	leaq	-565(%rbp), %rax
	movq	%rax, %rdi
	call	_ZNSaIfED1Ev
	jmp	.L46
.L50:
	endbr64
	movq	%rax, %rbx
.L46:
	leaq	-432(%rbp), %rax
	movq	%rax, %rdi
	call	_ZNSt7__cxx1119basic_istringstreamIcSt11char_traitsIcESaIcEED1Ev@PLT
	jmp	.L47
.L49:
	endbr64
	movq	%rax, %rbx
.L47:
	leaq	-464(%rbp), %rax
	movq	%rax, %rdi
	call	_ZNSt7__cxx1112basic_stringIcSt11char_traitsIcESaIcEED1Ev@PLT
	leaq	-496(%rbp), %rax
	movq	%rax, %rdi
	call	_ZNSt7__cxx1112basic_stringIcSt11char_traitsIcESaIcEED1Ev@PLT
	movq	%rbx, %rax
	movq	%rax, %rdi
.LEHB4:
	call	_Unwind_Resume@PLT
.LEHE4:
.L53:
	call	__stack_chk_fail@PLT
.L48:
	addq	$584, %rsp
	popq	%rbx
	popq	%r12
	popq	%r13
	popq	%rbp
	.cfi_def_cfa 7, 8
	ret
	.cfi_endproc
.LFE4574:
	.globl	__gxx_personality_v0
	.section	.gcc_except_table,"a",@progbits
.LLSDA4574:
	.byte	0xff
	.byte	0xff
	.byte	0x1
	.uleb128 .LLSDACSE4574-.LLSDACSB4574
.LLSDACSB4574:
	.uleb128 .LEHB0-.LFB4574
	.uleb128 .LEHE0-.LEHB0
	.uleb128 .L49-.LFB4574
	.uleb128 0
	.uleb128 .LEHB1-.LFB4574
	.uleb128 .LEHE1-.LEHB1
	.uleb128 .L50-.LFB4574
	.uleb128 0
	.uleb128 .LEHB2-.LFB4574
	.uleb128 .LEHE2-.LEHB2
	.uleb128 .L51-.LFB4574
	.uleb128 0
	.uleb128 .LEHB3-.LFB4574
	.uleb128 .LEHE3-.LEHB3
	.uleb128 .L52-.LFB4574
	.uleb128 0
	.uleb128 .LEHB4-.LFB4574
	.uleb128 .LEHE4-.LEHB4
	.uleb128 0
	.uleb128 0
.LLSDACSE4574:
	.text
	.size	_Z11processLineRKNSt7__cxx1112basic_stringIcSt11char_traitsIcESaIcEEERSt3mapIS4_St6vectorIfSaIfEESt4lessIS4_ESaISt4pairIS5_SA_EEE, .-_Z11processLineRKNSt7__cxx1112basic_stringIcSt11char_traitsIcESaIcEEERSt3mapIS4_St6vectorIfSaIfEESt4lessIS4_ESaISt4pairIS5_SA_EEE
	.section	.text._ZNSt8_Rb_treeINSt7__cxx1112basic_stringIcSt11char_traitsIcESaIcEEESt4pairIKS5_St6vectorIfSaIfEEESt10_Select1stISB_ESt4lessIS5_ESaISB_EE13_Rb_tree_implISF_Lb1EED2Ev,"axG",@progbits,_ZNSt8_Rb_treeINSt7__cxx1112basic_stringIcSt11char_traitsIcESaIcEEESt4pairIKS5_St6vectorIfSaIfEEESt10_Select1stISB_ESt4lessIS5_ESaISB_EE13_Rb_tree_implISF_Lb1EED5Ev,comdat
	.align 2
	.weak	_ZNSt8_Rb_treeINSt7__cxx1112basic_stringIcSt11char_traitsIcESaIcEEESt4pairIKS5_St6vectorIfSaIfEEESt10_Select1stISB_ESt4lessIS5_ESaISB_EE13_Rb_tree_implISF_Lb1EED2Ev
	.type	_ZNSt8_Rb_treeINSt7__cxx1112basic_stringIcSt11char_traitsIcESaIcEEESt4pairIKS5_St6vectorIfSaIfEEESt10_Select1stISB_ESt4lessIS5_ESaISB_EE13_Rb_tree_implISF_Lb1EED2Ev, @function
_ZNSt8_Rb_treeINSt7__cxx1112basic_stringIcSt11char_traitsIcESaIcEEESt4pairIKS5_St6vectorIfSaIfEEESt10_Select1stISB_ESt4lessIS5_ESaISB_EE13_Rb_tree_implISF_Lb1EED2Ev:
.LFB4586:
	.cfi_startproc
	endbr64
	pushq	%rbp
	.cfi_def_cfa_offset 16
	.cfi_offset 6, -16
	movq	%rsp, %rbp
	.cfi_def_cfa_register 6
	subq	$16, %rsp
	movq	%rdi, -8(%rbp)
	movq	-8(%rbp), %rax
	movq	%rax, %rdi
	call	_ZNSaISt13_Rb_tree_nodeISt4pairIKNSt7__cxx1112basic_stringIcSt11char_traitsIcESaIcEEESt6vectorIfSaIfEEEEED2Ev
	nop
	leave
	.cfi_def_cfa 7, 8
	ret
	.cfi_endproc
.LFE4586:
	.size	_ZNSt8_Rb_treeINSt7__cxx1112basic_stringIcSt11char_traitsIcESaIcEEESt4pairIKS5_St6vectorIfSaIfEEESt10_Select1stISB_ESt4lessIS5_ESaISB_EE13_Rb_tree_implISF_Lb1EED2Ev, .-_ZNSt8_Rb_treeINSt7__cxx1112basic_stringIcSt11char_traitsIcESaIcEEESt4pairIKS5_St6vectorIfSaIfEEESt10_Select1stISB_ESt4lessIS5_ESaISB_EE13_Rb_tree_implISF_Lb1EED2Ev
	.weak	_ZNSt8_Rb_treeINSt7__cxx1112basic_stringIcSt11char_traitsIcESaIcEEESt4pairIKS5_St6vectorIfSaIfEEESt10_Select1stISB_ESt4lessIS5_ESaISB_EE13_Rb_tree_implISF_Lb1EED1Ev
	.set	_ZNSt8_Rb_treeINSt7__cxx1112basic_stringIcSt11char_traitsIcESaIcEEESt4pairIKS5_St6vectorIfSaIfEEESt10_Select1stISB_ESt4lessIS5_ESaISB_EE13_Rb_tree_implISF_Lb1EED1Ev,_ZNSt8_Rb_treeINSt7__cxx1112basic_stringIcSt11char_traitsIcESaIcEEESt4pairIKS5_St6vectorIfSaIfEEESt10_Select1stISB_ESt4lessIS5_ESaISB_EE13_Rb_tree_implISF_Lb1EED2Ev
	.section	.text._ZNSt8_Rb_treeINSt7__cxx1112basic_stringIcSt11char_traitsIcESaIcEEESt4pairIKS5_St6vectorIfSaIfEEESt10_Select1stISB_ESt4lessIS5_ESaISB_EEC2Ev,"axG",@progbits,_ZNSt8_Rb_treeINSt7__cxx1112basic_stringIcSt11char_traitsIcESaIcEEESt4pairIKS5_St6vectorIfSaIfEEESt10_Select1stISB_ESt4lessIS5_ESaISB_EEC5Ev,comdat
	.align 2
	.weak	_ZNSt8_Rb_treeINSt7__cxx1112basic_stringIcSt11char_traitsIcESaIcEEESt4pairIKS5_St6vectorIfSaIfEEESt10_Select1stISB_ESt4lessIS5_ESaISB_EEC2Ev
	.type	_ZNSt8_Rb_treeINSt7__cxx1112basic_stringIcSt11char_traitsIcESaIcEEESt4pairIKS5_St6vectorIfSaIfEEESt10_Select1stISB_ESt4lessIS5_ESaISB_EEC2Ev, @function
_ZNSt8_Rb_treeINSt7__cxx1112basic_stringIcSt11char_traitsIcESaIcEEESt4pairIKS5_St6vectorIfSaIfEEESt10_Select1stISB_ESt4lessIS5_ESaISB_EEC2Ev:
.LFB4588:
	.cfi_startproc
	endbr64
	pushq	%rbp
	.cfi_def_cfa_offset 16
	.cfi_offset 6, -16
	movq	%rsp, %rbp
	.cfi_def_cfa_register 6
	subq	$16, %rsp
	movq	%rdi, -8(%rbp)
	movq	-8(%rbp), %rax
	movq	%rax, %rdi
	call	_ZNSt8_Rb_treeINSt7__cxx1112basic_stringIcSt11char_traitsIcESaIcEEESt4pairIKS5_St6vectorIfSaIfEEESt10_Select1stISB_ESt4lessIS5_ESaISB_EE13_Rb_tree_implISF_Lb1EEC1Ev
	nop
	leave
	.cfi_def_cfa 7, 8
	ret
	.cfi_endproc
.LFE4588:
	.size	_ZNSt8_Rb_treeINSt7__cxx1112basic_stringIcSt11char_traitsIcESaIcEEESt4pairIKS5_St6vectorIfSaIfEEESt10_Select1stISB_ESt4lessIS5_ESaISB_EEC2Ev, .-_ZNSt8_Rb_treeINSt7__cxx1112basic_stringIcSt11char_traitsIcESaIcEEESt4pairIKS5_St6vectorIfSaIfEEESt10_Select1stISB_ESt4lessIS5_ESaISB_EEC2Ev
	.weak	_ZNSt8_Rb_treeINSt7__cxx1112basic_stringIcSt11char_traitsIcESaIcEEESt4pairIKS5_St6vectorIfSaIfEEESt10_Select1stISB_ESt4lessIS5_ESaISB_EEC1Ev
	.set	_ZNSt8_Rb_treeINSt7__cxx1112basic_stringIcSt11char_traitsIcESaIcEEESt4pairIKS5_St6vectorIfSaIfEEESt10_Select1stISB_ESt4lessIS5_ESaISB_EEC1Ev,_ZNSt8_Rb_treeINSt7__cxx1112basic_stringIcSt11char_traitsIcESaIcEEESt4pairIKS5_St6vectorIfSaIfEEESt10_Select1stISB_ESt4lessIS5_ESaISB_EEC2Ev
	.section	.text._ZNSt3mapINSt7__cxx1112basic_stringIcSt11char_traitsIcESaIcEEESt6vectorIfSaIfEESt4lessIS5_ESaISt4pairIKS5_S8_EEEC2Ev,"axG",@progbits,_ZNSt3mapINSt7__cxx1112basic_stringIcSt11char_traitsIcESaIcEEESt6vectorIfSaIfEESt4lessIS5_ESaISt4pairIKS5_S8_EEEC5Ev,comdat
	.align 2
	.weak	_ZNSt3mapINSt7__cxx1112basic_stringIcSt11char_traitsIcESaIcEEESt6vectorIfSaIfEESt4lessIS5_ESaISt4pairIKS5_S8_EEEC2Ev
	.type	_ZNSt3mapINSt7__cxx1112basic_stringIcSt11char_traitsIcESaIcEEESt6vectorIfSaIfEESt4lessIS5_ESaISt4pairIKS5_S8_EEEC2Ev, @function
_ZNSt3mapINSt7__cxx1112basic_stringIcSt11char_traitsIcESaIcEEESt6vectorIfSaIfEESt4lessIS5_ESaISt4pairIKS5_S8_EEEC2Ev:
.LFB4590:
	.cfi_startproc
	endbr64
	pushq	%rbp
	.cfi_def_cfa_offset 16
	.cfi_offset 6, -16
	movq	%rsp, %rbp
	.cfi_def_cfa_register 6
	subq	$16, %rsp
	movq	%rdi, -8(%rbp)
	movq	-8(%rbp), %rax
	movq	%rax, %rdi
	call	_ZNSt8_Rb_treeINSt7__cxx1112basic_stringIcSt11char_traitsIcESaIcEEESt4pairIKS5_St6vectorIfSaIfEEESt10_Select1stISB_ESt4lessIS5_ESaISB_EEC1Ev
	nop
	leave
	.cfi_def_cfa 7, 8
	ret
	.cfi_endproc
.LFE4590:
	.size	_ZNSt3mapINSt7__cxx1112basic_stringIcSt11char_traitsIcESaIcEEESt6vectorIfSaIfEESt4lessIS5_ESaISt4pairIKS5_S8_EEEC2Ev, .-_ZNSt3mapINSt7__cxx1112basic_stringIcSt11char_traitsIcESaIcEEESt6vectorIfSaIfEESt4lessIS5_ESaISt4pairIKS5_S8_EEEC2Ev
	.weak	_ZNSt3mapINSt7__cxx1112basic_stringIcSt11char_traitsIcESaIcEEESt6vectorIfSaIfEESt4lessIS5_ESaISt4pairIKS5_S8_EEEC1Ev
	.set	_ZNSt3mapINSt7__cxx1112basic_stringIcSt11char_traitsIcESaIcEEESt6vectorIfSaIfEESt4lessIS5_ESaISt4pairIKS5_S8_EEEC1Ev,_ZNSt3mapINSt7__cxx1112basic_stringIcSt11char_traitsIcESaIcEEESt6vectorIfSaIfEESt4lessIS5_ESaISt4pairIKS5_S8_EEEC2Ev
	.section	.text._ZNSt3mapINSt7__cxx1112basic_stringIcSt11char_traitsIcESaIcEEESt6vectorIfSaIfEESt4lessIS5_ESaISt4pairIKS5_S8_EEED2Ev,"axG",@progbits,_ZNSt3mapINSt7__cxx1112basic_stringIcSt11char_traitsIcESaIcEEESt6vectorIfSaIfEESt4lessIS5_ESaISt4pairIKS5_S8_EEED5Ev,comdat
	.align 2
	.weak	_ZNSt3mapINSt7__cxx1112basic_stringIcSt11char_traitsIcESaIcEEESt6vectorIfSaIfEESt4lessIS5_ESaISt4pairIKS5_S8_EEED2Ev
	.type	_ZNSt3mapINSt7__cxx1112basic_stringIcSt11char_traitsIcESaIcEEESt6vectorIfSaIfEESt4lessIS5_ESaISt4pairIKS5_S8_EEED2Ev, @function
_ZNSt3mapINSt7__cxx1112basic_stringIcSt11char_traitsIcESaIcEEESt6vectorIfSaIfEESt4lessIS5_ESaISt4pairIKS5_S8_EEED2Ev:
.LFB4593:
	.cfi_startproc
	endbr64
	pushq	%rbp
	.cfi_def_cfa_offset 16
	.cfi_offset 6, -16
	movq	%rsp, %rbp
	.cfi_def_cfa_register 6
	subq	$16, %rsp
	movq	%rdi, -8(%rbp)
	movq	-8(%rbp), %rax
	movq	%rax, %rdi
	call	_ZNSt8_Rb_treeINSt7__cxx1112basic_stringIcSt11char_traitsIcESaIcEEESt4pairIKS5_St6vectorIfSaIfEEESt10_Select1stISB_ESt4lessIS5_ESaISB_EED1Ev
	nop
	leave
	.cfi_def_cfa 7, 8
	ret
	.cfi_endproc
.LFE4593:
	.size	_ZNSt3mapINSt7__cxx1112basic_stringIcSt11char_traitsIcESaIcEEESt6vectorIfSaIfEESt4lessIS5_ESaISt4pairIKS5_S8_EEED2Ev, .-_ZNSt3mapINSt7__cxx1112basic_stringIcSt11char_traitsIcESaIcEEESt6vectorIfSaIfEESt4lessIS5_ESaISt4pairIKS5_S8_EEED2Ev
	.weak	_ZNSt3mapINSt7__cxx1112basic_stringIcSt11char_traitsIcESaIcEEESt6vectorIfSaIfEESt4lessIS5_ESaISt4pairIKS5_S8_EEED1Ev
	.set	_ZNSt3mapINSt7__cxx1112basic_stringIcSt11char_traitsIcESaIcEEESt6vectorIfSaIfEESt4lessIS5_ESaISt4pairIKS5_S8_EEED1Ev,_ZNSt3mapINSt7__cxx1112basic_stringIcSt11char_traitsIcESaIcEEESt6vectorIfSaIfEESt4lessIS5_ESaISt4pairIKS5_S8_EEED2Ev
	.section	.text._ZNKSt17basic_string_viewIcSt11char_traitsIcEE5rfindEcm,"axG",@progbits,_ZNKSt17basic_string_viewIcSt11char_traitsIcEE5rfindEcm,comdat
	.align 2
	.weak	_ZNKSt17basic_string_viewIcSt11char_traitsIcEE5rfindEcm
	.type	_ZNKSt17basic_string_viewIcSt11char_traitsIcEE5rfindEcm, @function
_ZNKSt17basic_string_viewIcSt11char_traitsIcEE5rfindEcm:
.LFB4595:
	.cfi_startproc
	endbr64
	pushq	%rbp
	.cfi_def_cfa_offset 16
	.cfi_offset 6, -16
	movq	%rsp, %rbp
	.cfi_def_cfa_register 6
	subq	$48, %rsp
	movq	%rdi, -24(%rbp)
	movl	%esi, %eax
	movq	%rdx, -40(%rbp)
	movb	%al, -28(%rbp)
	movq	-24(%rbp), %rax
	movq	(%rax), %rax
	movq	%rax, -8(%rbp)
	cmpq	$0, -8(%rbp)
	je	.L59
	subq	$1, -8(%rbp)
	movq	-8(%rbp), %rax
	cmpq	-40(%rbp), %rax
	seta	%al
	testb	%al, %al
	je	.L60
	movq	-40(%rbp), %rax
	movq	%rax, -8(%rbp)
.L60:
	addq	$1, -8(%rbp)
	jmp	.L61
.L63:
	movq	-24(%rbp), %rax
	movq	8(%rax), %rdx
	movq	-8(%rbp), %rax
	addq	%rax, %rdx
	leaq	-28(%rbp), %rax
	movq	%rax, %rsi
	movq	%rdx, %rdi
	call	_ZNSt11char_traitsIcE2eqERKcS2_
	testb	%al, %al
	je	.L61
	movq	-8(%rbp), %rax
	jmp	.L62
.L61:
	movq	-8(%rbp), %rax
	leaq	-1(%rax), %rdx
	movq	%rdx, -8(%rbp)
	testq	%rax, %rax
	setne	%al
	testb	%al, %al
	jne	.L63
.L59:
	movq	$-1, %rax
.L62:
	leave
	.cfi_def_cfa 7, 8
	ret
	.cfi_endproc
.LFE4595:
	.size	_ZNKSt17basic_string_viewIcSt11char_traitsIcEE5rfindEcm, .-_ZNKSt17basic_string_viewIcSt11char_traitsIcEE5rfindEcm
	.section	.text._ZSt3getILm0EKNSt7__cxx1112basic_stringIcSt11char_traitsIcESaIcEEESt6vectorIfSaIfEEERKNSt13tuple_elementIXT_ESt4pairIT0_T1_EE4typeERKSE_,"axG",@progbits,_ZSt3getILm0EKNSt7__cxx1112basic_stringIcSt11char_traitsIcESaIcEEESt6vectorIfSaIfEEERKNSt13tuple_elementIXT_ESt4pairIT0_T1_EE4typeERKSE_,comdat
	.weak	_ZSt3getILm0EKNSt7__cxx1112basic_stringIcSt11char_traitsIcESaIcEEESt6vectorIfSaIfEEERKNSt13tuple_elementIXT_ESt4pairIT0_T1_EE4typeERKSE_
	.type	_ZSt3getILm0EKNSt7__cxx1112basic_stringIcSt11char_traitsIcESaIcEEESt6vectorIfSaIfEEERKNSt13tuple_elementIXT_ESt4pairIT0_T1_EE4typeERKSE_, @function
_ZSt3getILm0EKNSt7__cxx1112basic_stringIcSt11char_traitsIcESaIcEEESt6vectorIfSaIfEEERKNSt13tuple_elementIXT_ESt4pairIT0_T1_EE4typeERKSE_:
.LFB4596:
	.cfi_startproc
	endbr64
	pushq	%rbp
	.cfi_def_cfa_offset 16
	.cfi_offset 6, -16
	movq	%rsp, %rbp
	.cfi_def_cfa_register 6
	subq	$16, %rsp
	movq	%rdi, -8(%rbp)
	movq	-8(%rbp), %rax
	movq	%rax, %rdi
	call	_ZNSt10__pair_getILm0EE11__const_getIKNSt7__cxx1112basic_stringIcSt11char_traitsIcESaIcEEESt6vectorIfSaIfEEEERKT_RKSt4pairISC_T0_E
	leave
	.cfi_def_cfa 7, 8
	ret
	.cfi_endproc
.LFE4596:
	.size	_ZSt3getILm0EKNSt7__cxx1112basic_stringIcSt11char_traitsIcESaIcEEESt6vectorIfSaIfEEERKNSt13tuple_elementIXT_ESt4pairIT0_T1_EE4typeERKSE_, .-_ZSt3getILm0EKNSt7__cxx1112basic_stringIcSt11char_traitsIcESaIcEEESt6vectorIfSaIfEEERKNSt13tuple_elementIXT_ESt4pairIT0_T1_EE4typeERKSE_
	.section	.text._ZSt3getILm1EKNSt7__cxx1112basic_stringIcSt11char_traitsIcESaIcEEESt6vectorIfSaIfEEERKNSt13tuple_elementIXT_ESt4pairIT0_T1_EE4typeERKSE_,"axG",@progbits,_ZSt3getILm1EKNSt7__cxx1112basic_stringIcSt11char_traitsIcESaIcEEESt6vectorIfSaIfEEERKNSt13tuple_elementIXT_ESt4pairIT0_T1_EE4typeERKSE_,comdat
	.weak	_ZSt3getILm1EKNSt7__cxx1112basic_stringIcSt11char_traitsIcESaIcEEESt6vectorIfSaIfEEERKNSt13tuple_elementIXT_ESt4pairIT0_T1_EE4typeERKSE_
	.type	_ZSt3getILm1EKNSt7__cxx1112basic_stringIcSt11char_traitsIcESaIcEEESt6vectorIfSaIfEEERKNSt13tuple_elementIXT_ESt4pairIT0_T1_EE4typeERKSE_, @function
_ZSt3getILm1EKNSt7__cxx1112basic_stringIcSt11char_traitsIcESaIcEEESt6vectorIfSaIfEEERKNSt13tuple_elementIXT_ESt4pairIT0_T1_EE4typeERKSE_:
.LFB4597:
	.cfi_startproc
	endbr64
	pushq	%rbp
	.cfi_def_cfa_offset 16
	.cfi_offset 6, -16
	movq	%rsp, %rbp
	.cfi_def_cfa_register 6
	subq	$16, %rsp
	movq	%rdi, -8(%rbp)
	movq	-8(%rbp), %rax
	movq	%rax, %rdi
	call	_ZNSt10__pair_getILm1EE11__const_getIKNSt7__cxx1112basic_stringIcSt11char_traitsIcESaIcEEESt6vectorIfSaIfEEEERKT0_RKSt4pairIT_SC_E
	leave
	.cfi_def_cfa 7, 8
	ret
	.cfi_endproc
.LFE4597:
	.size	_ZSt3getILm1EKNSt7__cxx1112basic_stringIcSt11char_traitsIcESaIcEEESt6vectorIfSaIfEEERKNSt13tuple_elementIXT_ESt4pairIT0_T1_EE4typeERKSE_, .-_ZSt3getILm1EKNSt7__cxx1112basic_stringIcSt11char_traitsIcESaIcEEESt6vectorIfSaIfEEERKNSt13tuple_elementIXT_ESt4pairIT0_T1_EE4typeERKSE_
	.section	.rodata
	.align 8
.LC6:
	.string	"../data/measurements_1_000_000_000.txt"
.LC7:
	.string	"Error Opening File"
.LC8:
	.string	" = "
.LC9:
	.string	"/"
.LC10:
	.string	" "
	.text
	.globl	main
	.type	main, @function
main:
.LFB4579:
	.cfi_startproc
	.cfi_personality 0x9b,DW.ref.__gxx_personality_v0
	.cfi_lsda 0x1b,.LLSDA4579
	endbr64
	pushq	%rbp
	.cfi_def_cfa_offset 16
	.cfi_offset 6, -16
	movq	%rsp, %rbp
	.cfi_def_cfa_register 6
	pushq	%r13
	pushq	%r12
	pushq	%rbx
	subq	$1256, %rsp
	.cfi_offset 13, -24
	.cfi_offset 12, -32
	.cfi_offset 3, -40
	movq	%fs:40, %rax
	movq	%rax, -40(%rbp)
	xorl	%eax, %eax
	movl	$0, %edi
.LEHB5:
	call	_ZNSt8ios_base15sync_with_stdioEb@PLT
	leaq	-992(%rbp), %rax
	movl	$2, %edx
	leaq	.LC6(%rip), %rcx
	movq	%rcx, %rsi
	movq	%rax, %rdi
	call	_ZNSt10filesystem7__cxx114pathC1IA39_cS1_EERKT_NS1_6formatE
.LEHE5:
	leaq	-992(%rbp), %rax
	movq	%rax, %rdi
.LEHB6:
	call	_ZNSt10filesystem6existsERKNS_7__cxx114pathE
	xorl	$1, %eax
	testb	%al, %al
	je	.L69
	leaq	.LC7(%rip), %rax
	movq	%rax, %rsi
	leaq	_ZSt4cerr(%rip), %rax
	movq	%rax, %rdi
	call	_ZStlsISt11char_traitsIcEERSt13basic_ostreamIcT_ES5_PKc@PLT
	movq	_ZSt4endlIcSt11char_traitsIcEERSt13basic_ostreamIT_T0_ES6_@GOTPCREL(%rip), %rdx
	movq	%rdx, %rsi
	movq	%rax, %rdi
	call	_ZNSolsEPFRSoS_E@PLT
	movl	$1, %r13d
	movl	$0, %ebx
	jmp	.L70
.L69:
	leaq	-992(%rbp), %rcx
	leaq	-560(%rbp), %rax
	movl	$4, %edx
	movq	%rcx, %rsi
	movq	%rax, %rdi
	call	_ZNSt14basic_ifstreamIcSt11char_traitsIcEEC1INSt10filesystem7__cxx114pathES6_EERKT_St13_Ios_Openmode
.LEHE6:
	movq	$1073741824, -1256(%rbp)
	leaq	-1136(%rbp), %rax
	movq	%rax, %rdi
	call	_ZNSaIcEC1Ev@PLT
	leaq	-1136(%rbp), %rdx
	leaq	-1168(%rbp), %rax
	movl	$1073741824, %esi
	movq	%rax, %rdi
.LEHB7:
	call	_ZNSt6vectorIcSaIcEEC1EmRKS0_
.LEHE7:
	leaq	-1136(%rbp), %rax
	movq	%rax, %rdi
	call	_ZNSaIcED1Ev@PLT
	leaq	-1088(%rbp), %rax
	movq	%rax, %rdi
	call	_ZNSt7__cxx1112basic_stringIcSt11char_traitsIcESaIcEEC1Ev@PLT
	leaq	-1136(%rbp), %rax
	movq	%rax, %rdi
	call	_ZNSt3mapINSt7__cxx1112basic_stringIcSt11char_traitsIcESaIcEEESt6vectorIfSaIfEESt4lessIS5_ESaISt4pairIKS5_S8_EEEC1Ev
	jmp	.L71
.L76:
	leaq	-1088(%rbp), %rax
	movq	%rax, %rdi
	call	_ZNKSt7__cxx1112basic_stringIcSt11char_traitsIcESaIcEE4sizeEv@PLT
	movq	%rax, %rdx
	movl	$1073741824, %eax
	subq	%rdx, %rax
	movq	%rax, %rbx
	leaq	-1168(%rbp), %rax
	movq	%rax, %rdi
	call	_ZNSt6vectorIcSaIcEE4dataEv
	movq	%rax, %r12
	leaq	-1088(%rbp), %rax
	movq	%rax, %rdi
	call	_ZNKSt7__cxx1112basic_stringIcSt11char_traitsIcESaIcEE4sizeEv@PLT
	leaq	(%r12,%rax), %rcx
	leaq	-560(%rbp), %rax
	movq	%rbx, %rdx
	movq	%rcx, %rsi
	movq	%rax, %rdi
.LEHB8:
	call	_ZNSi4readEPcl@PLT
	leaq	-560(%rbp), %rax
	movq	%rax, %rdi
	call	_ZNKSi6gcountEv@PLT
.LEHE8:
	movq	%rax, -1216(%rbp)
	leaq	-1088(%rbp), %rax
	movq	%rax, %rdi
	call	_ZNKSt7__cxx1112basic_stringIcSt11char_traitsIcESaIcEE4sizeEv@PLT
	movq	-1216(%rbp), %rdx
	leaq	(%rax,%rdx), %rbx
	leaq	-1168(%rbp), %rax
	movq	%rax, %rdi
	call	_ZNSt6vectorIcSaIcEE4dataEv
	movq	%rax, %rcx
	leaq	-1200(%rbp), %rax
	movq	%rbx, %rdx
	movq	%rcx, %rsi
	movq	%rax, %rdi
	call	_ZNSt17basic_string_viewIcSt11char_traitsIcEEC1EPKcm
	leaq	-1088(%rbp), %rax
	movq	%rax, %rdi
	call	_ZNSt7__cxx1112basic_stringIcSt11char_traitsIcESaIcEE5clearEv@PLT
	leaq	-1200(%rbp), %rax
	movq	$-1, %rdx
	movl	$10, %esi
	movq	%rax, %rdi
	call	_ZNKSt17basic_string_viewIcSt11char_traitsIcEE5rfindEcm
	movq	%rax, -1208(%rbp)
	cmpq	$-1, -1208(%rbp)
	je	.L72
	leaq	-1261(%rbp), %rax
	movq	%rax, %rdi
	call	_ZNSaIcEC1Ev@PLT
	movq	-1208(%rbp), %rdx
	leaq	-1200(%rbp), %rax
	movl	$0, %esi
	movq	%rax, %rdi
.LEHB9:
	call	_ZNKSt17basic_string_viewIcSt11char_traitsIcEE6substrEmm
	movq	%rax, -1184(%rbp)
	movq	%rdx, -1176(%rbp)
	leaq	-1261(%rbp), %rdx
	leaq	-1184(%rbp), %rcx
	leaq	-1024(%rbp), %rax
	movq	%rcx, %rsi
	movq	%rax, %rdi
	call	_ZNSt7__cxx1112basic_stringIcSt11char_traitsIcESaIcEEC1ISt17basic_string_viewIcS2_EvEERKT_RKS3_
.LEHE9:
	leaq	-1024(%rbp), %rcx
	leaq	-944(%rbp), %rax
	movl	$8, %edx
	movq	%rcx, %rsi
	movq	%rax, %rdi
.LEHB10:
	call	_ZNSt7__cxx1119basic_istringstreamIcSt11char_traitsIcESaIcEEC1ERKNS_12basic_stringIcS2_S3_EESt13_Ios_Openmode@PLT
.LEHE10:
	leaq	-1024(%rbp), %rax
	movq	%rax, %rdi
	call	_ZNSt7__cxx1112basic_stringIcSt11char_traitsIcESaIcEED1Ev@PLT
	leaq	-1261(%rbp), %rax
	movq	%rax, %rdi
	call	_ZNSaIcED1Ev@PLT
	leaq	-1056(%rbp), %rax
	movq	%rax, %rdi
	call	_ZNSt7__cxx1112basic_stringIcSt11char_traitsIcESaIcEEC1Ev@PLT
	jmp	.L73
.L74:
	leaq	-1136(%rbp), %rdx
	leaq	-1056(%rbp), %rax
	movq	%rdx, %rsi
	movq	%rax, %rdi
.LEHB11:
	call	_Z11processLineRKNSt7__cxx1112basic_stringIcSt11char_traitsIcESaIcEEERSt3mapIS4_St6vectorIfSaIfEESt4lessIS4_ESaISt4pairIS5_SA_EEE
.L73:
	leaq	-1056(%rbp), %rdx
	leaq	-944(%rbp), %rax
	movq	%rdx, %rsi
	movq	%rax, %rdi
	call	_ZSt7getlineIcSt11char_traitsIcESaIcEERSt13basic_istreamIT_T0_ES7_RNSt7__cxx1112basic_stringIS4_S5_T1_EE@PLT
	movq	(%rax), %rdx
	subq	$24, %rdx
	movq	(%rdx), %rdx
	addq	%rdx, %rax
	movq	%rax, %rdi
	call	_ZNKSt9basic_iosIcSt11char_traitsIcEEcvbEv@PLT
.LEHE11:
	testb	%al, %al
	jne	.L74
	leaq	-1261(%rbp), %rax
	movq	%rax, %rdi
	call	_ZNSaIcEC1Ev@PLT
	movq	-1208(%rbp), %rax
	leaq	1(%rax), %rcx
	leaq	-1200(%rbp), %rax
	movq	$-1, %rdx
	movq	%rcx, %rsi
	movq	%rax, %rdi
.LEHB12:
	call	_ZNKSt17basic_string_viewIcSt11char_traitsIcEE6substrEmm
	movq	%rax, -1184(%rbp)
	movq	%rdx, -1176(%rbp)
	leaq	-1261(%rbp), %rdx
	leaq	-1184(%rbp), %rcx
	leaq	-1024(%rbp), %rax
	movq	%rcx, %rsi
	movq	%rax, %rdi
	call	_ZNSt7__cxx1112basic_stringIcSt11char_traitsIcESaIcEEC1ISt17basic_string_viewIcS2_EvEERKT_RKS3_
.LEHE12:
	leaq	-1024(%rbp), %rdx
	leaq	-1088(%rbp), %rax
	movq	%rdx, %rsi
	movq	%rax, %rdi
	call	_ZNSt7__cxx1112basic_stringIcSt11char_traitsIcESaIcEEaSEOS4_@PLT
	leaq	-1024(%rbp), %rax
	movq	%rax, %rdi
	call	_ZNSt7__cxx1112basic_stringIcSt11char_traitsIcESaIcEED1Ev@PLT
	leaq	-1261(%rbp), %rax
	movq	%rax, %rdi
	call	_ZNSaIcED1Ev@PLT
	leaq	-1056(%rbp), %rax
	movq	%rax, %rdi
	call	_ZNSt7__cxx1112basic_stringIcSt11char_traitsIcESaIcEED1Ev@PLT
	leaq	-944(%rbp), %rax
	movq	%rax, %rdi
	call	_ZNSt7__cxx1119basic_istringstreamIcSt11char_traitsIcESaIcEED1Ev@PLT
	jmp	.L75
.L72:
	leaq	-1184(%rbp), %rax
	movq	%rax, %rdi
	call	_ZNSaIcEC1Ev@PLT
	leaq	-1184(%rbp), %rdx
	leaq	-1200(%rbp), %rcx
	leaq	-944(%rbp), %rax
	movq	%rcx, %rsi
	movq	%rax, %rdi
.LEHB13:
	call	_ZNSt7__cxx1112basic_stringIcSt11char_traitsIcESaIcEEC1ISt17basic_string_viewIcS2_EvEERKT_RKS3_
.LEHE13:
	leaq	-944(%rbp), %rdx
	leaq	-1088(%rbp), %rax
	movq	%rdx, %rsi
	movq	%rax, %rdi
	call	_ZNSt7__cxx1112basic_stringIcSt11char_traitsIcESaIcEEaSEOS4_@PLT
	leaq	-944(%rbp), %rax
	movq	%rax, %rdi
	call	_ZNSt7__cxx1112basic_stringIcSt11char_traitsIcESaIcEED1Ev@PLT
	leaq	-1184(%rbp), %rax
	movq	%rax, %rdi
	call	_ZNSaIcED1Ev@PLT
.L75:
	leaq	-1168(%rbp), %rax
	movq	%rax, %rdi
	call	_ZNSt6vectorIcSaIcEE5beginEv
	movq	%rax, %r12
	leaq	-1088(%rbp), %rax
	movq	%rax, %rdi
	call	_ZNSt7__cxx1112basic_stringIcSt11char_traitsIcESaIcEE3endEv@PLT
	movq	%rax, %rbx
	leaq	-1088(%rbp), %rax
	movq	%rax, %rdi
	call	_ZNSt7__cxx1112basic_stringIcSt11char_traitsIcESaIcEE5beginEv@PLT
	movq	%r12, %rdx
	movq	%rbx, %rsi
	movq	%rax, %rdi
.LEHB14:
	call	_ZSt4copyIN9__gnu_cxx17__normal_iteratorIPcNSt7__cxx1112basic_stringIcSt11char_traitsIcESaIcEEEEENS1_IS2_St6vectorIcS7_EEEET0_T_SE_SD_
.L71:
	leaq	-560(%rbp), %rax
	addq	$256, %rax
	movq	%rax, %rdi
	call	_ZNKSt9basic_iosIcSt11char_traitsIcEEcvbEv@PLT
	testb	%al, %al
	jne	.L76
	leaq	-1088(%rbp), %rax
	movq	%rax, %rdi
	call	_ZNKSt7__cxx1112basic_stringIcSt11char_traitsIcESaIcEE5emptyEv@PLT
	xorl	$1, %eax
	testb	%al, %al
	je	.L77
	leaq	-1136(%rbp), %rdx
	leaq	-1088(%rbp), %rax
	movq	%rdx, %rsi
	movq	%rax, %rdi
	call	_Z11processLineRKNSt7__cxx1112basic_stringIcSt11char_traitsIcESaIcEEERSt3mapIS4_St6vectorIfSaIfEESt4lessIS4_ESaISt4pairIS5_SA_EEE
.L77:
	leaq	-1136(%rbp), %rax
	movq	%rax, -1248(%rbp)
	movq	-1248(%rbp), %rax
	movq	%rax, %rdi
	call	_ZNSt3mapINSt7__cxx1112basic_stringIcSt11char_traitsIcESaIcEEESt6vectorIfSaIfEESt4lessIS5_ESaISt4pairIKS5_S8_EEE5beginEv
	movq	%rax, -1200(%rbp)
	movq	-1248(%rbp), %rax
	movq	%rax, %rdi
	call	_ZNSt3mapINSt7__cxx1112basic_stringIcSt11char_traitsIcESaIcEEESt6vectorIfSaIfEESt4lessIS5_ESaISt4pairIKS5_S8_EEE3endEv
	movq	%rax, -1184(%rbp)
	jmp	.L78
.L79:
	leaq	-1200(%rbp), %rax
	movq	%rax, %rdi
	call	_ZNKSt17_Rb_tree_iteratorISt4pairIKNSt7__cxx1112basic_stringIcSt11char_traitsIcESaIcEEESt6vectorIfSaIfEEEEdeEv
	movq	%rax, -1240(%rbp)
	movq	-1240(%rbp), %rax
	movq	%rax, %rdi
	call	_ZSt3getILm0EKNSt7__cxx1112basic_stringIcSt11char_traitsIcESaIcEEESt6vectorIfSaIfEEERKNSt13tuple_elementIXT_ESt4pairIT0_T1_EE4typeERKSE_
	movq	%rax, -1232(%rbp)
	movq	-1240(%rbp), %rax
	movq	%rax, %rdi
	call	_ZSt3getILm1EKNSt7__cxx1112basic_stringIcSt11char_traitsIcESaIcEEESt6vectorIfSaIfEEERKNSt13tuple_elementIXT_ESt4pairIT0_T1_EE4typeERKSE_
	movq	%rax, -1224(%rbp)
	movq	-1224(%rbp), %rax
	movl	$0, %esi
	movq	%rax, %rdi
	call	_ZNKSt6vectorIfSaIfEEixEm
	movss	(%rax), %xmm1
	movss	%xmm1, -1268(%rbp)
	movq	-1224(%rbp), %rax
	movl	$3, %esi
	movq	%rax, %rdi
	call	_ZNKSt6vectorIfSaIfEEixEm
	movss	(%rax), %xmm0
	movss	-1268(%rbp), %xmm1
	divss	%xmm0, %xmm1
	movd	%xmm1, %eax
	movd	%eax, %xmm0
	call	_Z22round_to_nearest_tenthf
	movd	%xmm0, %eax
	movl	%eax, -1260(%rbp)
	movq	-1232(%rbp), %rax
	movq	%rax, %rsi
	leaq	_ZSt4cout(%rip), %rax
	movq	%rax, %rdi
	call	_ZStlsIcSt11char_traitsIcESaIcEERSt13basic_ostreamIT_T0_ES7_RKNSt7__cxx1112basic_stringIS4_S5_T1_EE@PLT
	movq	%rax, %rdx
	leaq	.LC8(%rip), %rax
	movq	%rax, %rsi
	movq	%rdx, %rdi
	call	_ZStlsISt11char_traitsIcEERSt13basic_ostreamIcT_ES5_PKc@PLT
	movq	%rax, %rbx
	movq	-1224(%rbp), %rax
	movl	$1, %esi
	movq	%rax, %rdi
	call	_ZNKSt6vectorIfSaIfEEixEm
	movl	(%rax), %eax
	movd	%eax, %xmm0
	call	_Z22round_to_nearest_tenthf
	movd	%xmm0, %eax
	movd	%eax, %xmm0
	movq	%rbx, %rdi
	call	_ZNSolsEf@PLT
	movq	%rax, %rdx
	leaq	.LC9(%rip), %rax
	movq	%rax, %rsi
	movq	%rdx, %rdi
	call	_ZStlsISt11char_traitsIcEERSt13basic_ostreamIcT_ES5_PKc@PLT
	movq	%rax, %rdx
	movl	-1260(%rbp), %eax
	movd	%eax, %xmm0
	movq	%rdx, %rdi
	call	_ZNSolsEf@PLT
	movq	%rax, %rdx
	leaq	.LC9(%rip), %rax
	movq	%rax, %rsi
	movq	%rdx, %rdi
	call	_ZStlsISt11char_traitsIcEERSt13basic_ostreamIcT_ES5_PKc@PLT
	movq	%rax, %rbx
	movq	-1224(%rbp), %rax
	movl	$2, %esi
	movq	%rax, %rdi
	call	_ZNKSt6vectorIfSaIfEEixEm
	movl	(%rax), %eax
	movd	%eax, %xmm0
	call	_Z22round_to_nearest_tenthf
	movd	%xmm0, %eax
	movd	%eax, %xmm0
	movq	%rbx, %rdi
	call	_ZNSolsEf@PLT
	movq	%rax, %rdx
	leaq	.LC10(%rip), %rax
	movq	%rax, %rsi
	movq	%rdx, %rdi
	call	_ZStlsISt11char_traitsIcEERSt13basic_ostreamIcT_ES5_PKc@PLT
.LEHE14:
	leaq	-1200(%rbp), %rax
	movq	%rax, %rdi
	call	_ZNSt17_Rb_tree_iteratorISt4pairIKNSt7__cxx1112basic_stringIcSt11char_traitsIcESaIcEEESt6vectorIfSaIfEEEEppEv
.L78:
	leaq	-1184(%rbp), %rdx
	leaq	-1200(%rbp), %rax
	movq	%rdx, %rsi
	movq	%rax, %rdi
	call	_ZStneRKSt17_Rb_tree_iteratorISt4pairIKNSt7__cxx1112basic_stringIcSt11char_traitsIcESaIcEEESt6vectorIfSaIfEEEESE_
	testb	%al, %al
	jne	.L79
	leaq	-1136(%rbp), %rax
	movq	%rax, %rdi
	call	_ZNSt3mapINSt7__cxx1112basic_stringIcSt11char_traitsIcESaIcEEESt6vectorIfSaIfEESt4lessIS5_ESaISt4pairIKS5_S8_EEED1Ev
	leaq	-1088(%rbp), %rax
	movq	%rax, %rdi
	call	_ZNSt7__cxx1112basic_stringIcSt11char_traitsIcESaIcEED1Ev@PLT
	leaq	-1168(%rbp), %rax
	movq	%rax, %rdi
	call	_ZNSt6vectorIcSaIcEED1Ev
	leaq	-560(%rbp), %rax
	movq	%rax, %rdi
	call	_ZNSt14basic_ifstreamIcSt11char_traitsIcEED1Ev@PLT
	movl	$1, %ebx
.L70:
	leaq	-992(%rbp), %rax
	movq	%rax, %rdi
	call	_ZNSt10filesystem7__cxx114pathD1Ev
	cmpl	$1, %ebx
	jne	.L81
	movl	$0, %r13d
.L81:
	movl	%r13d, %eax
	movq	-40(%rbp), %rdx
	subq	%fs:40, %rdx
	je	.L91
	jmp	.L100
.L93:
	endbr64
	movq	%rax, %rbx
	leaq	-1136(%rbp), %rax
	movq	%rax, %rdi
	call	_ZNSaIcED1Ev@PLT
	jmp	.L83
.L95:
	endbr64
	movq	%rax, %rbx
	leaq	-1024(%rbp), %rax
	movq	%rax, %rdi
	call	_ZNSt7__cxx1112basic_stringIcSt11char_traitsIcESaIcEED1Ev@PLT
	jmp	.L85
.L94:
	endbr64
	movq	%rax, %rbx
.L85:
	leaq	-1261(%rbp), %rax
	movq	%rax, %rdi
	call	_ZNSaIcED1Ev@PLT
	jmp	.L86
.L97:
	endbr64
	movq	%rax, %rbx
	leaq	-1261(%rbp), %rax
	movq	%rax, %rdi
	call	_ZNSaIcED1Ev@PLT
	jmp	.L88
.L96:
	endbr64
	movq	%rax, %rbx
.L88:
	leaq	-1056(%rbp), %rax
	movq	%rax, %rdi
	call	_ZNSt7__cxx1112basic_stringIcSt11char_traitsIcESaIcEED1Ev@PLT
	leaq	-944(%rbp), %rax
	movq	%rax, %rdi
	call	_ZNSt7__cxx1119basic_istringstreamIcSt11char_traitsIcESaIcEED1Ev@PLT
	jmp	.L86
.L98:
	endbr64
	movq	%rax, %rbx
	leaq	-1184(%rbp), %rax
	movq	%rax, %rdi
	call	_ZNSaIcED1Ev@PLT
	jmp	.L86
.L99:
	endbr64
	movq	%rax, %rbx
.L86:
	leaq	-1136(%rbp), %rax
	movq	%rax, %rdi
	call	_ZNSt3mapINSt7__cxx1112basic_stringIcSt11char_traitsIcESaIcEEESt6vectorIfSaIfEESt4lessIS5_ESaISt4pairIKS5_S8_EEED1Ev
	leaq	-1088(%rbp), %rax
	movq	%rax, %rdi
	call	_ZNSt7__cxx1112basic_stringIcSt11char_traitsIcESaIcEED1Ev@PLT
	leaq	-1168(%rbp), %rax
	movq	%rax, %rdi
	call	_ZNSt6vectorIcSaIcEED1Ev
.L83:
	leaq	-560(%rbp), %rax
	movq	%rax, %rdi
	call	_ZNSt14basic_ifstreamIcSt11char_traitsIcEED1Ev@PLT
	jmp	.L90
.L92:
	endbr64
	movq	%rax, %rbx
.L90:
	leaq	-992(%rbp), %rax
	movq	%rax, %rdi
	call	_ZNSt10filesystem7__cxx114pathD1Ev
	movq	%rbx, %rax
	movq	%rax, %rdi
.LEHB15:
	call	_Unwind_Resume@PLT
.LEHE15:
.L100:
	call	__stack_chk_fail@PLT
.L91:
	addq	$1256, %rsp
	popq	%rbx
	popq	%r12
	popq	%r13
	popq	%rbp
	.cfi_def_cfa 7, 8
	ret
	.cfi_endproc
.LFE4579:
	.section	.gcc_except_table
.LLSDA4579:
	.byte	0xff
	.byte	0xff
	.byte	0x1
	.uleb128 .LLSDACSE4579-.LLSDACSB4579
.LLSDACSB4579:
	.uleb128 .LEHB5-.LFB4579
	.uleb128 .LEHE5-.LEHB5
	.uleb128 0
	.uleb128 0
	.uleb128 .LEHB6-.LFB4579
	.uleb128 .LEHE6-.LEHB6
	.uleb128 .L92-.LFB4579
	.uleb128 0
	.uleb128 .LEHB7-.LFB4579
	.uleb128 .LEHE7-.LEHB7
	.uleb128 .L93-.LFB4579
	.uleb128 0
	.uleb128 .LEHB8-.LFB4579
	.uleb128 .LEHE8-.LEHB8
	.uleb128 .L99-.LFB4579
	.uleb128 0
	.uleb128 .LEHB9-.LFB4579
	.uleb128 .LEHE9-.LEHB9
	.uleb128 .L94-.LFB4579
	.uleb128 0
	.uleb128 .LEHB10-.LFB4579
	.uleb128 .LEHE10-.LEHB10
	.uleb128 .L95-.LFB4579
	.uleb128 0
	.uleb128 .LEHB11-.LFB4579
	.uleb128 .LEHE11-.LEHB11
	.uleb128 .L96-.LFB4579
	.uleb128 0
	.uleb128 .LEHB12-.LFB4579
	.uleb128 .LEHE12-.LEHB12
	.uleb128 .L97-.LFB4579
	.uleb128 0
	.uleb128 .LEHB13-.LFB4579
	.uleb128 .LEHE13-.LEHB13
	.uleb128 .L98-.LFB4579
	.uleb128 0
	.uleb128 .LEHB14-.LFB4579
	.uleb128 .LEHE14-.LEHB14
	.uleb128 .L99-.LFB4579
	.uleb128 0
	.uleb128 .LEHB15-.LFB4579
	.uleb128 .LEHE15-.LEHB15
	.uleb128 0
	.uleb128 0
.LLSDACSE4579:
	.text
	.size	main, .-main
	.section	.text._ZN9__gnu_cxx11char_traitsIcE2eqERKcS3_,"axG",@progbits,_ZN9__gnu_cxx11char_traitsIcE2eqERKcS3_,comdat
	.weak	_ZN9__gnu_cxx11char_traitsIcE2eqERKcS3_
	.type	_ZN9__gnu_cxx11char_traitsIcE2eqERKcS3_, @function
_ZN9__gnu_cxx11char_traitsIcE2eqERKcS3_:
.LFB4599:
	.cfi_startproc
	endbr64
	pushq	%rbp
	.cfi_def_cfa_offset 16
	.cfi_offset 6, -16
	movq	%rsp, %rbp
	.cfi_def_cfa_register 6
	movq	%rdi, -8(%rbp)
	movq	%rsi, -16(%rbp)
	movq	-8(%rbp), %rax
	movzbl	(%rax), %edx
	movq	-16(%rbp), %rax
	movzbl	(%rax), %eax
	cmpb	%al, %dl
	sete	%al
	popq	%rbp
	.cfi_def_cfa 7, 8
	ret
	.cfi_endproc
.LFE4599:
	.size	_ZN9__gnu_cxx11char_traitsIcE2eqERKcS3_, .-_ZN9__gnu_cxx11char_traitsIcE2eqERKcS3_
	.section	.text._ZN9__gnu_cxx11char_traitsIcE6lengthEPKc,"axG",@progbits,_ZN9__gnu_cxx11char_traitsIcE6lengthEPKc,comdat
	.align 2
	.weak	_ZN9__gnu_cxx11char_traitsIcE6lengthEPKc
	.type	_ZN9__gnu_cxx11char_traitsIcE6lengthEPKc, @function
_ZN9__gnu_cxx11char_traitsIcE6lengthEPKc:
.LFB4598:
	.cfi_startproc
	endbr64
	pushq	%rbp
	.cfi_def_cfa_offset 16
	.cfi_offset 6, -16
	movq	%rsp, %rbp
	.cfi_def_cfa_register 6
	subq	$48, %rsp
	movq	%rdi, -40(%rbp)
	movq	%fs:40, %rax
	movq	%rax, -8(%rbp)
	xorl	%eax, %eax
	movq	$0, -16(%rbp)
	jmp	.L104
.L105:
	addq	$1, -16(%rbp)
.L104:
	movb	$0, -17(%rbp)
	movq	-40(%rbp), %rdx
	movq	-16(%rbp), %rax
	addq	%rax, %rdx
	leaq	-17(%rbp), %rax
	movq	%rax, %rsi
	movq	%rdx, %rdi
	call	_ZN9__gnu_cxx11char_traitsIcE2eqERKcS3_
	xorl	$1, %eax
	testb	%al, %al
	jne	.L105
	movq	-16(%rbp), %rax
	movq	-8(%rbp), %rdx
	subq	%fs:40, %rdx
	je	.L107
	call	__stack_chk_fail@PLT
.L107:
	leave
	.cfi_def_cfa 7, 8
	ret
	.cfi_endproc
.LFE4598:
	.size	_ZN9__gnu_cxx11char_traitsIcE6lengthEPKc, .-_ZN9__gnu_cxx11char_traitsIcE6lengthEPKc
	.section	.text._ZNSt17basic_string_viewIcSt11char_traitsIcEEC2EPKcm,"axG",@progbits,_ZNSt17basic_string_viewIcSt11char_traitsIcEEC5EPKcm,comdat
	.align 2
	.weak	_ZNSt17basic_string_viewIcSt11char_traitsIcEEC2EPKcm
	.type	_ZNSt17basic_string_viewIcSt11char_traitsIcEEC2EPKcm, @function
_ZNSt17basic_string_viewIcSt11char_traitsIcEEC2EPKcm:
.LFB4614:
	.cfi_startproc
	endbr64
	pushq	%rbp
	.cfi_def_cfa_offset 16
	.cfi_offset 6, -16
	movq	%rsp, %rbp
	.cfi_def_cfa_register 6
	movq	%rdi, -8(%rbp)
	movq	%rsi, -16(%rbp)
	movq	%rdx, -24(%rbp)
	movq	-8(%rbp), %rax
	movq	-24(%rbp), %rdx
	movq	%rdx, (%rax)
	movq	-8(%rbp), %rax
	movq	-16(%rbp), %rdx
	movq	%rdx, 8(%rax)
	nop
	popq	%rbp
	.cfi_def_cfa 7, 8
	ret
	.cfi_endproc
.LFE4614:
	.size	_ZNSt17basic_string_viewIcSt11char_traitsIcEEC2EPKcm, .-_ZNSt17basic_string_viewIcSt11char_traitsIcEEC2EPKcm
	.weak	_ZNSt17basic_string_viewIcSt11char_traitsIcEEC1EPKcm
	.set	_ZNSt17basic_string_viewIcSt11char_traitsIcEEC1EPKcm,_ZNSt17basic_string_viewIcSt11char_traitsIcEEC2EPKcm
	.section	.text._ZZN9__gnu_cxx6__stoaIffcJEEET0_PFT_PKT1_PPS3_DpT2_EPKcS5_PmS9_EN11_Save_errnoC2Ev,"axG",@progbits,_ZZN9__gnu_cxx6__stoaIffcJEEET0_PFT_PKT1_PPS3_DpT2_EPKcS5_PmS9_EN11_Save_errnoC5Ev,comdat
	.align 2
	.weak	_ZZN9__gnu_cxx6__stoaIffcJEEET0_PFT_PKT1_PPS3_DpT2_EPKcS5_PmS9_EN11_Save_errnoC2Ev
	.type	_ZZN9__gnu_cxx6__stoaIffcJEEET0_PFT_PKT1_PPS3_DpT2_EPKcS5_PmS9_EN11_Save_errnoC2Ev, @function
_ZZN9__gnu_cxx6__stoaIffcJEEET0_PFT_PKT1_PPS3_DpT2_EPKcS5_PmS9_EN11_Save_errnoC2Ev:
.LFB4673:
	.cfi_startproc
	endbr64
	pushq	%rbp
	.cfi_def_cfa_offset 16
	.cfi_offset 6, -16
	movq	%rsp, %rbp
	.cfi_def_cfa_register 6
	subq	$16, %rsp
	movq	%rdi, -8(%rbp)
	call	__errno_location@PLT
	movl	(%rax), %edx
	movq	-8(%rbp), %rax
	movl	%edx, (%rax)
	call	__errno_location@PLT
	movl	$0, (%rax)
	nop
	leave
	.cfi_def_cfa 7, 8
	ret
	.cfi_endproc
.LFE4673:
	.size	_ZZN9__gnu_cxx6__stoaIffcJEEET0_PFT_PKT1_PPS3_DpT2_EPKcS5_PmS9_EN11_Save_errnoC2Ev, .-_ZZN9__gnu_cxx6__stoaIffcJEEET0_PFT_PKT1_PPS3_DpT2_EPKcS5_PmS9_EN11_Save_errnoC2Ev
	.weak	_ZZN9__gnu_cxx6__stoaIffcJEEET0_PFT_PKT1_PPS3_DpT2_EPKcS5_PmS9_EN11_Save_errnoC1Ev
	.set	_ZZN9__gnu_cxx6__stoaIffcJEEET0_PFT_PKT1_PPS3_DpT2_EPKcS5_PmS9_EN11_Save_errnoC1Ev,_ZZN9__gnu_cxx6__stoaIffcJEEET0_PFT_PKT1_PPS3_DpT2_EPKcS5_PmS9_EN11_Save_errnoC2Ev
	.section	.text._ZZN9__gnu_cxx6__stoaIffcJEEET0_PFT_PKT1_PPS3_DpT2_EPKcS5_PmS9_EN11_Save_errnoD2Ev,"axG",@progbits,_ZZN9__gnu_cxx6__stoaIffcJEEET0_PFT_PKT1_PPS3_DpT2_EPKcS5_PmS9_EN11_Save_errnoD5Ev,comdat
	.align 2
	.weak	_ZZN9__gnu_cxx6__stoaIffcJEEET0_PFT_PKT1_PPS3_DpT2_EPKcS5_PmS9_EN11_Save_errnoD2Ev
	.type	_ZZN9__gnu_cxx6__stoaIffcJEEET0_PFT_PKT1_PPS3_DpT2_EPKcS5_PmS9_EN11_Save_errnoD2Ev, @function
_ZZN9__gnu_cxx6__stoaIffcJEEET0_PFT_PKT1_PPS3_DpT2_EPKcS5_PmS9_EN11_Save_errnoD2Ev:
.LFB4676:
	.cfi_startproc
	endbr64
	pushq	%rbp
	.cfi_def_cfa_offset 16
	.cfi_offset 6, -16
	movq	%rsp, %rbp
	.cfi_def_cfa_register 6
	subq	$16, %rsp
	movq	%rdi, -8(%rbp)
	call	__errno_location@PLT
	movl	(%rax), %eax
	testl	%eax, %eax
	jne	.L112
	call	__errno_location@PLT
	movq	-8(%rbp), %rdx
	movl	(%rdx), %edx
	movl	%edx, (%rax)
.L112:
	nop
	leave
	.cfi_def_cfa 7, 8
	ret
	.cfi_endproc
.LFE4676:
	.size	_ZZN9__gnu_cxx6__stoaIffcJEEET0_PFT_PKT1_PPS3_DpT2_EPKcS5_PmS9_EN11_Save_errnoD2Ev, .-_ZZN9__gnu_cxx6__stoaIffcJEEET0_PFT_PKT1_PPS3_DpT2_EPKcS5_PmS9_EN11_Save_errnoD2Ev
	.weak	_ZZN9__gnu_cxx6__stoaIffcJEEET0_PFT_PKT1_PPS3_DpT2_EPKcS5_PmS9_EN11_Save_errnoD1Ev
	.set	_ZZN9__gnu_cxx6__stoaIffcJEEET0_PFT_PKT1_PPS3_DpT2_EPKcS5_PmS9_EN11_Save_errnoD1Ev,_ZZN9__gnu_cxx6__stoaIffcJEEET0_PFT_PKT1_PPS3_DpT2_EPKcS5_PmS9_EN11_Save_errnoD2Ev
	.section	.text._ZZN9__gnu_cxx6__stoaIffcJEEET0_PFT_PKT1_PPS3_DpT2_EPKcS5_PmS9_EN10_Range_chk6_S_chkEfSt17integral_constantIbLb0EE,"axG",@progbits,_ZZN9__gnu_cxx6__stoaIffcJEEET0_PFT_PKT1_PPS3_DpT2_EPKcS5_PmS9_EN10_Range_chk6_S_chkEfSt17integral_constantIbLb0EE,comdat
	.weak	_ZZN9__gnu_cxx6__stoaIffcJEEET0_PFT_PKT1_PPS3_DpT2_EPKcS5_PmS9_EN10_Range_chk6_S_chkEfSt17integral_constantIbLb0EE
	.type	_ZZN9__gnu_cxx6__stoaIffcJEEET0_PFT_PKT1_PPS3_DpT2_EPKcS5_PmS9_EN10_Range_chk6_S_chkEfSt17integral_constantIbLb0EE, @function
_ZZN9__gnu_cxx6__stoaIffcJEEET0_PFT_PKT1_PPS3_DpT2_EPKcS5_PmS9_EN10_Range_chk6_S_chkEfSt17integral_constantIbLb0EE:
.LFB4678:
	.cfi_startproc
	endbr64
	pushq	%rbp
	.cfi_def_cfa_offset 16
	.cfi_offset 6, -16
	movq	%rsp, %rbp
	.cfi_def_cfa_register 6
	movss	%xmm0, -4(%rbp)
	movl	$0, %eax
	popq	%rbp
	.cfi_def_cfa 7, 8
	ret
	.cfi_endproc
.LFE4678:
	.size	_ZZN9__gnu_cxx6__stoaIffcJEEET0_PFT_PKT1_PPS3_DpT2_EPKcS5_PmS9_EN10_Range_chk6_S_chkEfSt17integral_constantIbLb0EE, .-_ZZN9__gnu_cxx6__stoaIffcJEEET0_PFT_PKT1_PPS3_DpT2_EPKcS5_PmS9_EN10_Range_chk6_S_chkEfSt17integral_constantIbLb0EE
	.section	.text._ZN9__gnu_cxx6__stoaIffcJEEET0_PFT_PKT1_PPS3_DpT2_EPKcS5_PmS9_,"axG",@progbits,_ZN9__gnu_cxx6__stoaIffcJEEET0_PFT_PKT1_PPS3_DpT2_EPKcS5_PmS9_,comdat
	.weak	_ZN9__gnu_cxx6__stoaIffcJEEET0_PFT_PKT1_PPS3_DpT2_EPKcS5_PmS9_
	.type	_ZN9__gnu_cxx6__stoaIffcJEEET0_PFT_PKT1_PPS3_DpT2_EPKcS5_PmS9_, @function
_ZN9__gnu_cxx6__stoaIffcJEEET0_PFT_PKT1_PPS3_DpT2_EPKcS5_PmS9_:
.LFB4671:
	.cfi_startproc
	.cfi_personality 0x9b,DW.ref.__gxx_personality_v0
	.cfi_lsda 0x1b,.LLSDA4671
	endbr64
	pushq	%rbp
	.cfi_def_cfa_offset 16
	.cfi_offset 6, -16
	movq	%rsp, %rbp
	.cfi_def_cfa_register 6
	pushq	%rbx
	subq	$88, %rsp
	.cfi_offset 3, -24
	movq	%rdi, -56(%rbp)
	movq	%rsi, -64(%rbp)
	movq	%rdx, -72(%rbp)
	movq	%rcx, -80(%rbp)
	movq	%fs:40, %rax
	movq	%rax, -24(%rbp)
	xorl	%eax, %eax
	leaq	-44(%rbp), %rax
	movq	%rax, %rdi
	call	_ZZN9__gnu_cxx6__stoaIffcJEEET0_PFT_PKT1_PPS3_DpT2_EPKcS5_PmS9_EN11_Save_errnoC1Ev
	movq	-56(%rbp), %rcx
	leaq	-32(%rbp), %rdx
	movq	-72(%rbp), %rax
	movq	%rdx, %rsi
	movq	%rax, %rdi
.LEHB16:
	call	*%rcx
	movd	%xmm0, %eax
	movl	%eax, -40(%rbp)
	movq	-32(%rbp), %rax
	cmpq	%rax, -72(%rbp)
	jne	.L116
	movq	-64(%rbp), %rax
	movq	%rax, %rdi
	call	_ZSt24__throw_invalid_argumentPKc@PLT
.L116:
	call	__errno_location@PLT
	movl	(%rax), %eax
	cmpl	$34, %eax
	je	.L117
	movl	-40(%rbp), %eax
	movd	%eax, %xmm0
	call	_ZZN9__gnu_cxx6__stoaIffcJEEET0_PFT_PKT1_PPS3_DpT2_EPKcS5_PmS9_EN10_Range_chk6_S_chkEfSt17integral_constantIbLb0EE
	testb	%al, %al
	je	.L118
.L117:
	movl	$1, %eax
	jmp	.L119
.L118:
	movl	$0, %eax
.L119:
	testb	%al, %al
	je	.L120
	movq	-64(%rbp), %rax
	movq	%rax, %rdi
	call	_ZSt20__throw_out_of_rangePKc@PLT
.LEHE16:
.L120:
	movss	-40(%rbp), %xmm0
	movss	%xmm0, -36(%rbp)
	cmpq	$0, -80(%rbp)
	je	.L121
	movq	-32(%rbp), %rax
	subq	-72(%rbp), %rax
	movq	%rax, %rdx
	movq	-80(%rbp), %rax
	movq	%rdx, (%rax)
.L121:
	movss	-36(%rbp), %xmm1
	movss	%xmm1, -84(%rbp)
	leaq	-44(%rbp), %rax
	movq	%rax, %rdi
	call	_ZZN9__gnu_cxx6__stoaIffcJEEET0_PFT_PKT1_PPS3_DpT2_EPKcS5_PmS9_EN11_Save_errnoD1Ev
	movss	-84(%rbp), %xmm0
	movq	-24(%rbp), %rax
	subq	%fs:40, %rax
	je	.L124
	jmp	.L126
.L125:
	endbr64
	movq	%rax, %rbx
	leaq	-44(%rbp), %rax
	movq	%rax, %rdi
	call	_ZZN9__gnu_cxx6__stoaIffcJEEET0_PFT_PKT1_PPS3_DpT2_EPKcS5_PmS9_EN11_Save_errnoD1Ev
	movq	%rbx, %rax
	movq	%rax, %rdi
.LEHB17:
	call	_Unwind_Resume@PLT
.LEHE17:
.L126:
	call	__stack_chk_fail@PLT
.L124:
	movq	-8(%rbp), %rbx
	leave
	.cfi_def_cfa 7, 8
	ret
	.cfi_endproc
.LFE4671:
	.section	.gcc_except_table
.LLSDA4671:
	.byte	0xff
	.byte	0xff
	.byte	0x1
	.uleb128 .LLSDACSE4671-.LLSDACSB4671
.LLSDACSB4671:
	.uleb128 .LEHB16-.LFB4671
	.uleb128 .LEHE16-.LEHB16
	.uleb128 .L125-.LFB4671
	.uleb128 0
	.uleb128 .LEHB17-.LFB4671
	.uleb128 .LEHE17-.LEHB17
	.uleb128 0
	.uleb128 0
.LLSDACSE4671:
	.section	.text._ZN9__gnu_cxx6__stoaIffcJEEET0_PFT_PKT1_PPS3_DpT2_EPKcS5_PmS9_,"axG",@progbits,_ZN9__gnu_cxx6__stoaIffcJEEET0_PFT_PKT1_PPS3_DpT2_EPKcS5_PmS9_,comdat
	.size	_ZN9__gnu_cxx6__stoaIffcJEEET0_PFT_PKT1_PPS3_DpT2_EPKcS5_PmS9_, .-_ZN9__gnu_cxx6__stoaIffcJEEET0_PFT_PKT1_PPS3_DpT2_EPKcS5_PmS9_
	.section	.text._ZNSt10unique_ptrINSt10filesystem7__cxx114path5_List5_ImplENS3_13_Impl_deleterEED2Ev,"axG",@progbits,_ZNSt10unique_ptrINSt10filesystem7__cxx114path5_List5_ImplENS3_13_Impl_deleterEED5Ev,comdat
	.align 2
	.weak	_ZNSt10unique_ptrINSt10filesystem7__cxx114path5_List5_ImplENS3_13_Impl_deleterEED2Ev
	.type	_ZNSt10unique_ptrINSt10filesystem7__cxx114path5_List5_ImplENS3_13_Impl_deleterEED2Ev, @function
_ZNSt10unique_ptrINSt10filesystem7__cxx114path5_List5_ImplENS3_13_Impl_deleterEED2Ev:
.LFB4957:
	.cfi_startproc
	endbr64
	pushq	%rbp
	.cfi_def_cfa_offset 16
	.cfi_offset 6, -16
	movq	%rsp, %rbp
	.cfi_def_cfa_register 6
	pushq	%rbx
	subq	$40, %rsp
	.cfi_offset 3, -24
	movq	%rdi, -40(%rbp)
	movq	-40(%rbp), %rax
	movq	%rax, %rdi
	call	_ZNSt15__uniq_ptr_implINSt10filesystem7__cxx114path5_List5_ImplENS3_13_Impl_deleterEE6_M_ptrEv
	movq	%rax, -24(%rbp)
	movq	-24(%rbp), %rax
	movq	(%rax), %rax
	testq	%rax, %rax
	je	.L128
	movq	-40(%rbp), %rax
	movq	%rax, %rdi
	call	_ZNSt10unique_ptrINSt10filesystem7__cxx114path5_List5_ImplENS3_13_Impl_deleterEE11get_deleterEv
	movq	%rax, %rbx
	movq	-24(%rbp), %rax
	movq	%rax, %rdi
	call	_ZSt4moveIRPNSt10filesystem7__cxx114path5_List5_ImplEEONSt16remove_referenceIT_E4typeEOS8_
	movq	(%rax), %rax
	movq	%rax, %rsi
	movq	%rbx, %rdi
	call	_ZNKSt10filesystem7__cxx114path5_List13_Impl_deleterclEPNS2_5_ImplE@PLT
.L128:
	movq	-24(%rbp), %rax
	movq	$0, (%rax)
	nop
	movq	-8(%rbp), %rbx
	leave
	.cfi_def_cfa 7, 8
	ret
	.cfi_endproc
.LFE4957:
	.size	_ZNSt10unique_ptrINSt10filesystem7__cxx114path5_List5_ImplENS3_13_Impl_deleterEED2Ev, .-_ZNSt10unique_ptrINSt10filesystem7__cxx114path5_List5_ImplENS3_13_Impl_deleterEED2Ev
	.weak	_ZNSt10unique_ptrINSt10filesystem7__cxx114path5_List5_ImplENS3_13_Impl_deleterEED1Ev
	.set	_ZNSt10unique_ptrINSt10filesystem7__cxx114path5_List5_ImplENS3_13_Impl_deleterEED1Ev,_ZNSt10unique_ptrINSt10filesystem7__cxx114path5_List5_ImplENS3_13_Impl_deleterEED2Ev
	.section	.text._ZNSt17basic_string_viewIcSt11char_traitsIcEEC2EPKc,"axG",@progbits,_ZNSt17basic_string_viewIcSt11char_traitsIcEEC5EPKc,comdat
	.align 2
	.weak	_ZNSt17basic_string_viewIcSt11char_traitsIcEEC2EPKc
	.type	_ZNSt17basic_string_viewIcSt11char_traitsIcEEC2EPKc, @function
_ZNSt17basic_string_viewIcSt11char_traitsIcEEC2EPKc:
.LFB4990:
	.cfi_startproc
	.cfi_personality 0x9b,DW.ref.__gxx_personality_v0
	.cfi_lsda 0x1b,.LLSDA4990
	endbr64
	pushq	%rbp
	.cfi_def_cfa_offset 16
	.cfi_offset 6, -16
	movq	%rsp, %rbp
	.cfi_def_cfa_register 6
	subq	$16, %rsp
	movq	%rdi, -8(%rbp)
	movq	%rsi, -16(%rbp)
	movq	-16(%rbp), %rax
	movq	%rax, %rdi
	call	_ZNSt11char_traitsIcE6lengthEPKc
	movq	-8(%rbp), %rdx
	movq	%rax, (%rdx)
	movq	-8(%rbp), %rax
	movq	-16(%rbp), %rdx
	movq	%rdx, 8(%rax)
	nop
	leave
	.cfi_def_cfa 7, 8
	ret
	.cfi_endproc
.LFE4990:
	.section	.gcc_except_table
.LLSDA4990:
	.byte	0xff
	.byte	0xff
	.byte	0x1
	.uleb128 .LLSDACSE4990-.LLSDACSB4990
.LLSDACSB4990:
.LLSDACSE4990:
	.section	.text._ZNSt17basic_string_viewIcSt11char_traitsIcEEC2EPKc,"axG",@progbits,_ZNSt17basic_string_viewIcSt11char_traitsIcEEC5EPKc,comdat
	.size	_ZNSt17basic_string_viewIcSt11char_traitsIcEEC2EPKc, .-_ZNSt17basic_string_viewIcSt11char_traitsIcEEC2EPKc
	.weak	_ZNSt17basic_string_viewIcSt11char_traitsIcEEC1EPKc
	.set	_ZNSt17basic_string_viewIcSt11char_traitsIcEEC1EPKc,_ZNSt17basic_string_viewIcSt11char_traitsIcEEC2EPKc
	.section	.text._ZNSt3mapINSt7__cxx1112basic_stringIcSt11char_traitsIcESaIcEEESt6vectorIfSaIfEESt4lessIS5_ESaISt4pairIKS5_S8_EEE4findERSC_,"axG",@progbits,_ZNSt3mapINSt7__cxx1112basic_stringIcSt11char_traitsIcESaIcEEESt6vectorIfSaIfEESt4lessIS5_ESaISt4pairIKS5_S8_EEE4findERSC_,comdat
	.align 2
	.weak	_ZNSt3mapINSt7__cxx1112basic_stringIcSt11char_traitsIcESaIcEEESt6vectorIfSaIfEESt4lessIS5_ESaISt4pairIKS5_S8_EEE4findERSC_
	.type	_ZNSt3mapINSt7__cxx1112basic_stringIcSt11char_traitsIcESaIcEEESt6vectorIfSaIfEESt4lessIS5_ESaISt4pairIKS5_S8_EEE4findERSC_, @function
_ZNSt3mapINSt7__cxx1112basic_stringIcSt11char_traitsIcESaIcEEESt6vectorIfSaIfEESt4lessIS5_ESaISt4pairIKS5_S8_EEE4findERSC_:
.LFB5030:
	.cfi_startproc
	endbr64
	pushq	%rbp
	.cfi_def_cfa_offset 16
	.cfi_offset 6, -16
	movq	%rsp, %rbp
	.cfi_def_cfa_register 6
	subq	$16, %rsp
	movq	%rdi, -8(%rbp)
	movq	%rsi, -16(%rbp)
	movq	-8(%rbp), %rax
	movq	-16(%rbp), %rdx
	movq	%rdx, %rsi
	movq	%rax, %rdi
	call	_ZNSt8_Rb_treeINSt7__cxx1112basic_stringIcSt11char_traitsIcESaIcEEESt4pairIKS5_St6vectorIfSaIfEEESt10_Select1stISB_ESt4lessIS5_ESaISB_EE4findERS7_
	leave
	.cfi_def_cfa 7, 8
	ret
	.cfi_endproc
.LFE5030:
	.size	_ZNSt3mapINSt7__cxx1112basic_stringIcSt11char_traitsIcESaIcEEESt6vectorIfSaIfEESt4lessIS5_ESaISt4pairIKS5_S8_EEE4findERSC_, .-_ZNSt3mapINSt7__cxx1112basic_stringIcSt11char_traitsIcESaIcEEESt6vectorIfSaIfEESt4lessIS5_ESaISt4pairIKS5_S8_EEE4findERSC_
	.section	.text._ZNSt3mapINSt7__cxx1112basic_stringIcSt11char_traitsIcESaIcEEESt6vectorIfSaIfEESt4lessIS5_ESaISt4pairIKS5_S8_EEE3endEv,"axG",@progbits,_ZNSt3mapINSt7__cxx1112basic_stringIcSt11char_traitsIcESaIcEEESt6vectorIfSaIfEESt4lessIS5_ESaISt4pairIKS5_S8_EEE3endEv,comdat
	.align 2
	.weak	_ZNSt3mapINSt7__cxx1112basic_stringIcSt11char_traitsIcESaIcEEESt6vectorIfSaIfEESt4lessIS5_ESaISt4pairIKS5_S8_EEE3endEv
	.type	_ZNSt3mapINSt7__cxx1112basic_stringIcSt11char_traitsIcESaIcEEESt6vectorIfSaIfEESt4lessIS5_ESaISt4pairIKS5_S8_EEE3endEv, @function
_ZNSt3mapINSt7__cxx1112basic_stringIcSt11char_traitsIcESaIcEEESt6vectorIfSaIfEESt4lessIS5_ESaISt4pairIKS5_S8_EEE3endEv:
.LFB5031:
	.cfi_startproc
	endbr64
	pushq	%rbp
	.cfi_def_cfa_offset 16
	.cfi_offset 6, -16
	movq	%rsp, %rbp
	.cfi_def_cfa_register 6
	subq	$16, %rsp
	movq	%rdi, -8(%rbp)
	movq	-8(%rbp), %rax
	movq	%rax, %rdi
	call	_ZNSt8_Rb_treeINSt7__cxx1112basic_stringIcSt11char_traitsIcESaIcEEESt4pairIKS5_St6vectorIfSaIfEEESt10_Select1stISB_ESt4lessIS5_ESaISB_EE3endEv
	leave
	.cfi_def_cfa 7, 8
	ret
	.cfi_endproc
.LFE5031:
	.size	_ZNSt3mapINSt7__cxx1112basic_stringIcSt11char_traitsIcESaIcEEESt6vectorIfSaIfEESt4lessIS5_ESaISt4pairIKS5_S8_EEE3endEv, .-_ZNSt3mapINSt7__cxx1112basic_stringIcSt11char_traitsIcESaIcEEESt6vectorIfSaIfEESt4lessIS5_ESaISt4pairIKS5_S8_EEE3endEv
	.section	.text._ZStneRKSt17_Rb_tree_iteratorISt4pairIKNSt7__cxx1112basic_stringIcSt11char_traitsIcESaIcEEESt6vectorIfSaIfEEEESE_,"axG",@progbits,_ZStneRKSt17_Rb_tree_iteratorISt4pairIKNSt7__cxx1112basic_stringIcSt11char_traitsIcESaIcEEESt6vectorIfSaIfEEEESE_,comdat
	.weak	_ZStneRKSt17_Rb_tree_iteratorISt4pairIKNSt7__cxx1112basic_stringIcSt11char_traitsIcESaIcEEESt6vectorIfSaIfEEEESE_
	.type	_ZStneRKSt17_Rb_tree_iteratorISt4pairIKNSt7__cxx1112basic_stringIcSt11char_traitsIcESaIcEEESt6vectorIfSaIfEEEESE_, @function
_ZStneRKSt17_Rb_tree_iteratorISt4pairIKNSt7__cxx1112basic_stringIcSt11char_traitsIcESaIcEEESt6vectorIfSaIfEEEESE_:
.LFB5032:
	.cfi_startproc
	endbr64
	pushq	%rbp
	.cfi_def_cfa_offset 16
	.cfi_offset 6, -16
	movq	%rsp, %rbp
	.cfi_def_cfa_register 6
	movq	%rdi, -8(%rbp)
	movq	%rsi, -16(%rbp)
	movq	-8(%rbp), %rax
	movq	(%rax), %rdx
	movq	-16(%rbp), %rax
	movq	(%rax), %rax
	cmpq	%rax, %rdx
	setne	%al
	popq	%rbp
	.cfi_def_cfa 7, 8
	ret
	.cfi_endproc
.LFE5032:
	.size	_ZStneRKSt17_Rb_tree_iteratorISt4pairIKNSt7__cxx1112basic_stringIcSt11char_traitsIcESaIcEEESt6vectorIfSaIfEEEESE_, .-_ZStneRKSt17_Rb_tree_iteratorISt4pairIKNSt7__cxx1112basic_stringIcSt11char_traitsIcESaIcEEESt6vectorIfSaIfEEEESE_
	.section	.text._ZNKSt17_Rb_tree_iteratorISt4pairIKNSt7__cxx1112basic_stringIcSt11char_traitsIcESaIcEEESt6vectorIfSaIfEEEEptEv,"axG",@progbits,_ZNKSt17_Rb_tree_iteratorISt4pairIKNSt7__cxx1112basic_stringIcSt11char_traitsIcESaIcEEESt6vectorIfSaIfEEEEptEv,comdat
	.align 2
	.weak	_ZNKSt17_Rb_tree_iteratorISt4pairIKNSt7__cxx1112basic_stringIcSt11char_traitsIcESaIcEEESt6vectorIfSaIfEEEEptEv
	.type	_ZNKSt17_Rb_tree_iteratorISt4pairIKNSt7__cxx1112basic_stringIcSt11char_traitsIcESaIcEEESt6vectorIfSaIfEEEEptEv, @function
_ZNKSt17_Rb_tree_iteratorISt4pairIKNSt7__cxx1112basic_stringIcSt11char_traitsIcESaIcEEESt6vectorIfSaIfEEEEptEv:
.LFB5033:
	.cfi_startproc
	endbr64
	pushq	%rbp
	.cfi_def_cfa_offset 16
	.cfi_offset 6, -16
	movq	%rsp, %rbp
	.cfi_def_cfa_register 6
	subq	$16, %rsp
	movq	%rdi, -8(%rbp)
	movq	-8(%rbp), %rax
	movq	(%rax), %rax
	movq	%rax, %rdi
	call	_ZNSt13_Rb_tree_nodeISt4pairIKNSt7__cxx1112basic_stringIcSt11char_traitsIcESaIcEEESt6vectorIfSaIfEEEE9_M_valptrEv
	leave
	.cfi_def_cfa 7, 8
	ret
	.cfi_endproc
.LFE5033:
	.size	_ZNKSt17_Rb_tree_iteratorISt4pairIKNSt7__cxx1112basic_stringIcSt11char_traitsIcESaIcEEESt6vectorIfSaIfEEEEptEv, .-_ZNKSt17_Rb_tree_iteratorISt4pairIKNSt7__cxx1112basic_stringIcSt11char_traitsIcESaIcEEESt6vectorIfSaIfEEEEptEv
	.section	.text._ZNSt6vectorIfSaIfEEixEm,"axG",@progbits,_ZNSt6vectorIfSaIfEEixEm,comdat
	.align 2
	.weak	_ZNSt6vectorIfSaIfEEixEm
	.type	_ZNSt6vectorIfSaIfEEixEm, @function
_ZNSt6vectorIfSaIfEEixEm:
.LFB5034:
	.cfi_startproc
	endbr64
	pushq	%rbp
	.cfi_def_cfa_offset 16
	.cfi_offset 6, -16
	movq	%rsp, %rbp
	.cfi_def_cfa_register 6
	movq	%rdi, -8(%rbp)
	movq	%rsi, -16(%rbp)
	movq	-8(%rbp), %rax
	movq	(%rax), %rdx
	movq	-16(%rbp), %rax
	salq	$2, %rax
	addq	%rdx, %rax
	popq	%rbp
	.cfi_def_cfa 7, 8
	ret
	.cfi_endproc
.LFE5034:
	.size	_ZNSt6vectorIfSaIfEEixEm, .-_ZNSt6vectorIfSaIfEEixEm
	.section	.text._ZSt3minIfERKT_S2_S2_,"axG",@progbits,_ZSt3minIfERKT_S2_S2_,comdat
	.weak	_ZSt3minIfERKT_S2_S2_
	.type	_ZSt3minIfERKT_S2_S2_, @function
_ZSt3minIfERKT_S2_S2_:
.LFB5035:
	.cfi_startproc
	endbr64
	pushq	%rbp
	.cfi_def_cfa_offset 16
	.cfi_offset 6, -16
	movq	%rsp, %rbp
	.cfi_def_cfa_register 6
	movq	%rdi, -8(%rbp)
	movq	%rsi, -16(%rbp)
	movq	-16(%rbp), %rax
	movss	(%rax), %xmm1
	movq	-8(%rbp), %rax
	movss	(%rax), %xmm0
	comiss	%xmm1, %xmm0
	jbe	.L145
	movq	-16(%rbp), %rax
	jmp	.L143
.L145:
	movq	-8(%rbp), %rax
.L143:
	popq	%rbp
	.cfi_def_cfa 7, 8
	ret
	.cfi_endproc
.LFE5035:
	.size	_ZSt3minIfERKT_S2_S2_, .-_ZSt3minIfERKT_S2_S2_
	.section	.text._ZSt3maxIfERKT_S2_S2_,"axG",@progbits,_ZSt3maxIfERKT_S2_S2_,comdat
	.weak	_ZSt3maxIfERKT_S2_S2_
	.type	_ZSt3maxIfERKT_S2_S2_, @function
_ZSt3maxIfERKT_S2_S2_:
.LFB5036:
	.cfi_startproc
	endbr64
	pushq	%rbp
	.cfi_def_cfa_offset 16
	.cfi_offset 6, -16
	movq	%rsp, %rbp
	.cfi_def_cfa_register 6
	movq	%rdi, -8(%rbp)
	movq	%rsi, -16(%rbp)
	movq	-8(%rbp), %rax
	movss	(%rax), %xmm1
	movq	-16(%rbp), %rax
	movss	(%rax), %xmm0
	comiss	%xmm1, %xmm0
	jbe	.L151
	movq	-16(%rbp), %rax
	jmp	.L149
.L151:
	movq	-8(%rbp), %rax
.L149:
	popq	%rbp
	.cfi_def_cfa 7, 8
	ret
	.cfi_endproc
.LFE5036:
	.size	_ZSt3maxIfERKT_S2_S2_, .-_ZSt3maxIfERKT_S2_S2_
	.section	.text._ZNSt3mapINSt7__cxx1112basic_stringIcSt11char_traitsIcESaIcEEESt6vectorIfSaIfEESt4lessIS5_ESaISt4pairIKS5_S8_EEEixERSC_,"axG",@progbits,_ZNSt3mapINSt7__cxx1112basic_stringIcSt11char_traitsIcESaIcEEESt6vectorIfSaIfEESt4lessIS5_ESaISt4pairIKS5_S8_EEEixERSC_,comdat
	.align 2
	.weak	_ZNSt3mapINSt7__cxx1112basic_stringIcSt11char_traitsIcESaIcEEESt6vectorIfSaIfEESt4lessIS5_ESaISt4pairIKS5_S8_EEEixERSC_
	.type	_ZNSt3mapINSt7__cxx1112basic_stringIcSt11char_traitsIcESaIcEEESt6vectorIfSaIfEESt4lessIS5_ESaISt4pairIKS5_S8_EEEixERSC_, @function
_ZNSt3mapINSt7__cxx1112basic_stringIcSt11char_traitsIcESaIcEEESt6vectorIfSaIfEESt4lessIS5_ESaISt4pairIKS5_S8_EEEixERSC_:
.LFB5037:
	.cfi_startproc
	endbr64
	pushq	%rbp
	.cfi_def_cfa_offset 16
	.cfi_offset 6, -16
	movq	%rsp, %rbp
	.cfi_def_cfa_register 6
	pushq	%rbx
	subq	$72, %rsp
	.cfi_offset 3, -24
	movq	%rdi, -72(%rbp)
	movq	%rsi, -80(%rbp)
	movq	%fs:40, %rax
	movq	%rax, -24(%rbp)
	xorl	%eax, %eax
	movq	-80(%rbp), %rdx
	movq	-72(%rbp), %rax
	movq	%rdx, %rsi
	movq	%rax, %rdi
	call	_ZNSt3mapINSt7__cxx1112basic_stringIcSt11char_traitsIcESaIcEEESt6vectorIfSaIfEESt4lessIS5_ESaISt4pairIKS5_S8_EEE11lower_boundERSC_
	movq	%rax, -48(%rbp)
	movq	-72(%rbp), %rax
	movq	%rax, %rdi
	call	_ZNSt3mapINSt7__cxx1112basic_stringIcSt11char_traitsIcESaIcEEESt6vectorIfSaIfEESt4lessIS5_ESaISt4pairIKS5_S8_EEE3endEv
	movq	%rax, -32(%rbp)
	leaq	-32(%rbp), %rdx
	leaq	-48(%rbp), %rax
	movq	%rdx, %rsi
	movq	%rax, %rdi
	call	_ZSteqRKSt17_Rb_tree_iteratorISt4pairIKNSt7__cxx1112basic_stringIcSt11char_traitsIcESaIcEEESt6vectorIfSaIfEEEESE_
	testb	%al, %al
	jne	.L153
	movq	-72(%rbp), %rax
	movq	%rax, %rdi
	call	_ZNKSt3mapINSt7__cxx1112basic_stringIcSt11char_traitsIcESaIcEEESt6vectorIfSaIfEESt4lessIS5_ESaISt4pairIKS5_S8_EEE8key_compEv
	leaq	-48(%rbp), %rax
	movq	%rax, %rdi
	call	_ZNKSt17_Rb_tree_iteratorISt4pairIKNSt7__cxx1112basic_stringIcSt11char_traitsIcESaIcEEESt6vectorIfSaIfEEEEdeEv
	movq	%rax, %rdx
	movq	-80(%rbp), %rcx
	leaq	-40(%rbp), %rax
	movq	%rcx, %rsi
	movq	%rax, %rdi
	call	_ZNKSt4lessINSt7__cxx1112basic_stringIcSt11char_traitsIcESaIcEEEEclERKS5_S8_
	testb	%al, %al
	je	.L154
.L153:
	movl	$1, %eax
	jmp	.L155
.L154:
	movl	$0, %eax
.L155:
	testb	%al, %al
	je	.L156
	movq	-72(%rbp), %rbx
	movq	-80(%rbp), %rdx
	leaq	-40(%rbp), %rax
	movq	%rdx, %rsi
	movq	%rax, %rdi
	call	_ZNSt5tupleIJRKNSt7__cxx1112basic_stringIcSt11char_traitsIcESaIcEEEEEC1ILb1ELb1EEES7_
	leaq	-48(%rbp), %rdx
	leaq	-32(%rbp), %rax
	movq	%rdx, %rsi
	movq	%rax, %rdi
	call	_ZNSt23_Rb_tree_const_iteratorISt4pairIKNSt7__cxx1112basic_stringIcSt11char_traitsIcESaIcEEESt6vectorIfSaIfEEEEC1ERKSt17_Rb_tree_iteratorISB_E
	leaq	-49(%rbp), %rcx
	leaq	-40(%rbp), %rdx
	movq	-32(%rbp), %rax
	movq	%rcx, %r8
	movq	%rdx, %rcx
	leaq	_ZSt19piecewise_construct(%rip), %rdx
	movq	%rax, %rsi
	movq	%rbx, %rdi
	call	_ZNSt8_Rb_treeINSt7__cxx1112basic_stringIcSt11char_traitsIcESaIcEEESt4pairIKS5_St6vectorIfSaIfEEESt10_Select1stISB_ESt4lessIS5_ESaISB_EE22_M_emplace_hint_uniqueIJRKSt21piecewise_construct_tSt5tupleIJRS7_EESM_IJEEEEESt17_Rb_tree_iteratorISB_ESt23_Rb_tree_const_iteratorISB_EDpOT_
	movq	%rax, -48(%rbp)
.L156:
	leaq	-48(%rbp), %rax
	movq	%rax, %rdi
	call	_ZNKSt17_Rb_tree_iteratorISt4pairIKNSt7__cxx1112basic_stringIcSt11char_traitsIcESaIcEEESt6vectorIfSaIfEEEEdeEv
	addq	$32, %rax
	movq	-24(%rbp), %rdx
	subq	%fs:40, %rdx
	je	.L158
	call	__stack_chk_fail@PLT
.L158:
	movq	-8(%rbp), %rbx
	leave
	.cfi_def_cfa 7, 8
	ret
	.cfi_endproc
.LFE5037:
	.size	_ZNSt3mapINSt7__cxx1112basic_stringIcSt11char_traitsIcESaIcEEESt6vectorIfSaIfEESt4lessIS5_ESaISt4pairIKS5_S8_EEEixERSC_, .-_ZNSt3mapINSt7__cxx1112basic_stringIcSt11char_traitsIcESaIcEEESt6vectorIfSaIfEESt4lessIS5_ESaISt4pairIKS5_S8_EEEixERSC_
	.section	.text._ZNSaIfEC2Ev,"axG",@progbits,_ZNSaIfEC5Ev,comdat
	.align 2
	.weak	_ZNSaIfEC2Ev
	.type	_ZNSaIfEC2Ev, @function
_ZNSaIfEC2Ev:
.LFB5045:
	.cfi_startproc
	endbr64
	pushq	%rbp
	.cfi_def_cfa_offset 16
	.cfi_offset 6, -16
	movq	%rsp, %rbp
	.cfi_def_cfa_register 6
	subq	$16, %rsp
	movq	%rdi, -8(%rbp)
	movq	-8(%rbp), %rax
	movq	%rax, %rdi
	call	_ZN9__gnu_cxx13new_allocatorIfEC2Ev
	nop
	leave
	.cfi_def_cfa 7, 8
	ret
	.cfi_endproc
.LFE5045:
	.size	_ZNSaIfEC2Ev, .-_ZNSaIfEC2Ev
	.weak	_ZNSaIfEC1Ev
	.set	_ZNSaIfEC1Ev,_ZNSaIfEC2Ev
	.section	.text._ZNSaIfED2Ev,"axG",@progbits,_ZNSaIfED5Ev,comdat
	.align 2
	.weak	_ZNSaIfED2Ev
	.type	_ZNSaIfED2Ev, @function
_ZNSaIfED2Ev:
.LFB5048:
	.cfi_startproc
	endbr64
	pushq	%rbp
	.cfi_def_cfa_offset 16
	.cfi_offset 6, -16
	movq	%rsp, %rbp
	.cfi_def_cfa_register 6
	subq	$16, %rsp
	movq	%rdi, -8(%rbp)
	movq	-8(%rbp), %rax
	movq	%rax, %rdi
	call	_ZN9__gnu_cxx13new_allocatorIfED2Ev
	nop
	leave
	.cfi_def_cfa 7, 8
	ret
	.cfi_endproc
.LFE5048:
	.size	_ZNSaIfED2Ev, .-_ZNSaIfED2Ev
	.weak	_ZNSaIfED1Ev
	.set	_ZNSaIfED1Ev,_ZNSaIfED2Ev
	.section	.text._ZNSt6vectorIfSaIfEEC2ESt16initializer_listIfERKS0_,"axG",@progbits,_ZNSt6vectorIfSaIfEEC5ESt16initializer_listIfERKS0_,comdat
	.align 2
	.weak	_ZNSt6vectorIfSaIfEEC2ESt16initializer_listIfERKS0_
	.type	_ZNSt6vectorIfSaIfEEC2ESt16initializer_listIfERKS0_, @function
_ZNSt6vectorIfSaIfEEC2ESt16initializer_listIfERKS0_:
.LFB5051:
	.cfi_startproc
	.cfi_personality 0x9b,DW.ref.__gxx_personality_v0
	.cfi_lsda 0x1b,.LLSDA5051
	endbr64
	pushq	%rbp
	.cfi_def_cfa_offset 16
	.cfi_offset 6, -16
	movq	%rsp, %rbp
	.cfi_def_cfa_register 6
	pushq	%rbx
	subq	$56, %rsp
	.cfi_offset 3, -24
	movq	%rdi, -40(%rbp)
	movq	%rsi, %rax
	movq	%rdx, %rsi
	movq	%rsi, %rdx
	movq	%rax, -64(%rbp)
	movq	%rdx, -56(%rbp)
	movq	%rcx, -48(%rbp)
	movq	%fs:40, %rax
	movq	%rax, -24(%rbp)
	xorl	%eax, %eax
	movq	-40(%rbp), %rax
	movq	-48(%rbp), %rdx
	movq	%rdx, %rsi
	movq	%rax, %rdi
	call	_ZNSt12_Vector_baseIfSaIfEEC2ERKS0_
	leaq	-64(%rbp), %rax
	movq	%rax, %rdi
	call	_ZNKSt16initializer_listIfE3endEv
	movq	%rax, %rbx
	leaq	-64(%rbp), %rax
	movq	%rax, %rdi
	call	_ZNKSt16initializer_listIfE5beginEv
	movq	%rax, %rcx
	movq	-40(%rbp), %rax
	movq	%rbx, %rdx
	movq	%rcx, %rsi
	movq	%rax, %rdi
.LEHB18:
	call	_ZNSt6vectorIfSaIfEE19_M_range_initializeIPKfEEvT_S5_St20forward_iterator_tag
.LEHE18:
	jmp	.L165
.L164:
	endbr64
	movq	%rax, %rbx
	movq	-40(%rbp), %rax
	movq	%rax, %rdi
	call	_ZNSt12_Vector_baseIfSaIfEED2Ev
	movq	%rbx, %rax
	movq	%rax, %rdi
.LEHB19:
	call	_Unwind_Resume@PLT
.LEHE19:
.L165:
	movq	-24(%rbp), %rax
	subq	%fs:40, %rax
	je	.L163
	call	__stack_chk_fail@PLT
.L163:
	movq	-8(%rbp), %rbx
	leave
	.cfi_def_cfa 7, 8
	ret
	.cfi_endproc
.LFE5051:
	.section	.gcc_except_table
.LLSDA5051:
	.byte	0xff
	.byte	0xff
	.byte	0x1
	.uleb128 .LLSDACSE5051-.LLSDACSB5051
.LLSDACSB5051:
	.uleb128 .LEHB18-.LFB5051
	.uleb128 .LEHE18-.LEHB18
	.uleb128 .L164-.LFB5051
	.uleb128 0
	.uleb128 .LEHB19-.LFB5051
	.uleb128 .LEHE19-.LEHB19
	.uleb128 0
	.uleb128 0
.LLSDACSE5051:
	.section	.text._ZNSt6vectorIfSaIfEEC2ESt16initializer_listIfERKS0_,"axG",@progbits,_ZNSt6vectorIfSaIfEEC5ESt16initializer_listIfERKS0_,comdat
	.size	_ZNSt6vectorIfSaIfEEC2ESt16initializer_listIfERKS0_, .-_ZNSt6vectorIfSaIfEEC2ESt16initializer_listIfERKS0_
	.weak	_ZNSt6vectorIfSaIfEEC1ESt16initializer_listIfERKS0_
	.set	_ZNSt6vectorIfSaIfEEC1ESt16initializer_listIfERKS0_,_ZNSt6vectorIfSaIfEEC2ESt16initializer_listIfERKS0_
	.section	.text._ZNSt6vectorIfSaIfEED2Ev,"axG",@progbits,_ZNSt6vectorIfSaIfEED5Ev,comdat
	.align 2
	.weak	_ZNSt6vectorIfSaIfEED2Ev
	.type	_ZNSt6vectorIfSaIfEED2Ev, @function
_ZNSt6vectorIfSaIfEED2Ev:
.LFB5054:
	.cfi_startproc
	.cfi_personality 0x9b,DW.ref.__gxx_personality_v0
	.cfi_lsda 0x1b,.LLSDA5054
	endbr64
	pushq	%rbp
	.cfi_def_cfa_offset 16
	.cfi_offset 6, -16
	movq	%rsp, %rbp
	.cfi_def_cfa_register 6
	subq	$16, %rsp
	movq	%rdi, -8(%rbp)
	movq	-8(%rbp), %rax
	movq	%rax, %rdi
	call	_ZNSt12_Vector_baseIfSaIfEE19_M_get_Tp_allocatorEv
	movq	%rax, %rdx
	movq	-8(%rbp), %rax
	movq	8(%rax), %rcx
	movq	-8(%rbp), %rax
	movq	(%rax), %rax
	movq	%rcx, %rsi
	movq	%rax, %rdi
	call	_ZSt8_DestroyIPffEvT_S1_RSaIT0_E
	movq	-8(%rbp), %rax
	movq	%rax, %rdi
	call	_ZNSt12_Vector_baseIfSaIfEED2Ev
	nop
	leave
	.cfi_def_cfa 7, 8
	ret
	.cfi_endproc
.LFE5054:
	.section	.gcc_except_table
.LLSDA5054:
	.byte	0xff
	.byte	0xff
	.byte	0x1
	.uleb128 .LLSDACSE5054-.LLSDACSB5054
.LLSDACSB5054:
.LLSDACSE5054:
	.section	.text._ZNSt6vectorIfSaIfEED2Ev,"axG",@progbits,_ZNSt6vectorIfSaIfEED5Ev,comdat
	.size	_ZNSt6vectorIfSaIfEED2Ev, .-_ZNSt6vectorIfSaIfEED2Ev
	.weak	_ZNSt6vectorIfSaIfEED1Ev
	.set	_ZNSt6vectorIfSaIfEED1Ev,_ZNSt6vectorIfSaIfEED2Ev
	.section	.text._ZNSt6vectorIfSaIfEEaSEOS1_,"axG",@progbits,_ZNSt6vectorIfSaIfEEaSEOS1_,comdat
	.align 2
	.weak	_ZNSt6vectorIfSaIfEEaSEOS1_
	.type	_ZNSt6vectorIfSaIfEEaSEOS1_, @function
_ZNSt6vectorIfSaIfEEaSEOS1_:
.LFB5056:
	.cfi_startproc
	endbr64
	pushq	%rbp
	.cfi_def_cfa_offset 16
	.cfi_offset 6, -16
	movq	%rsp, %rbp
	.cfi_def_cfa_register 6
	subq	$32, %rsp
	movq	%rdi, -24(%rbp)
	movq	%rsi, -32(%rbp)
	movb	$1, -1(%rbp)
	movq	-32(%rbp), %rax
	movq	%rax, %rdi
	call	_ZSt4moveIRSt6vectorIfSaIfEEEONSt16remove_referenceIT_E4typeEOS5_
	movq	%rax, %rdx
	movq	-24(%rbp), %rax
	movq	%rdx, %rsi
	movq	%rax, %rdi
	call	_ZNSt6vectorIfSaIfEE14_M_move_assignEOS1_St17integral_constantIbLb1EE
	movq	-24(%rbp), %rax
	leave
	.cfi_def_cfa 7, 8
	ret
	.cfi_endproc
.LFE5056:
	.size	_ZNSt6vectorIfSaIfEEaSEOS1_, .-_ZNSt6vectorIfSaIfEEaSEOS1_
	.section	.text._ZNSt10filesystem7__cxx118__detail17__effective_rangeIA39_cEEDaRKT_,"axG",@progbits,_ZNSt10filesystem7__cxx118__detail17__effective_rangeIA39_cEEDaRKT_,comdat
	.weak	_ZNSt10filesystem7__cxx118__detail17__effective_rangeIA39_cEEDaRKT_
	.type	_ZNSt10filesystem7__cxx118__detail17__effective_rangeIA39_cEEDaRKT_, @function
_ZNSt10filesystem7__cxx118__detail17__effective_rangeIA39_cEEDaRKT_:
.LFB5058:
	.cfi_startproc
	endbr64
	pushq	%rbp
	.cfi_def_cfa_offset 16
	.cfi_offset 6, -16
	movq	%rsp, %rbp
	.cfi_def_cfa_register 6
	subq	$48, %rsp
	movq	%rdi, -40(%rbp)
	movq	%fs:40, %rax
	movq	%rax, -8(%rbp)
	xorl	%eax, %eax
	movq	-40(%rbp), %rdx
	leaq	-32(%rbp), %rax
	movq	%rdx, %rsi
	movq	%rax, %rdi
	call	_ZNSt17basic_string_viewIcSt11char_traitsIcEEC1EPKc
	movq	-32(%rbp), %rax
	movq	-24(%rbp), %rdx
	movq	-8(%rbp), %rcx
	subq	%fs:40, %rcx
	je	.L171
	call	__stack_chk_fail@PLT
.L171:
	leave
	.cfi_def_cfa 7, 8
	ret
	.cfi_endproc
.LFE5058:
	.size	_ZNSt10filesystem7__cxx118__detail17__effective_rangeIA39_cEEDaRKT_, .-_ZNSt10filesystem7__cxx118__detail17__effective_rangeIA39_cEEDaRKT_
	.section	.text._ZNSt10filesystem7__cxx114path10_S_convertISt17basic_string_viewIcSt11char_traitsIcEEEEDaRKT_,"axG",@progbits,_ZNSt10filesystem7__cxx114path10_S_convertISt17basic_string_viewIcSt11char_traitsIcEEEEDaRKT_,comdat
	.weak	_ZNSt10filesystem7__cxx114path10_S_convertISt17basic_string_viewIcSt11char_traitsIcEEEEDaRKT_
	.type	_ZNSt10filesystem7__cxx114path10_S_convertISt17basic_string_viewIcSt11char_traitsIcEEEEDaRKT_, @function
_ZNSt10filesystem7__cxx114path10_S_convertISt17basic_string_viewIcSt11char_traitsIcEEEEDaRKT_:
.LFB5059:
	.cfi_startproc
	endbr64
	pushq	%rbp
	.cfi_def_cfa_offset 16
	.cfi_offset 6, -16
	movq	%rsp, %rbp
	.cfi_def_cfa_register 6
	movq	%rdi, -8(%rbp)
	movq	-8(%rbp), %rax
	movq	8(%rax), %rdx
	movq	(%rax), %rax
	popq	%rbp
	.cfi_def_cfa 7, 8
	ret
	.cfi_endproc
.LFE5059:
	.size	_ZNSt10filesystem7__cxx114path10_S_convertISt17basic_string_viewIcSt11char_traitsIcEEEEDaRKT_, .-_ZNSt10filesystem7__cxx114path10_S_convertISt17basic_string_viewIcSt11char_traitsIcEEEEDaRKT_
	.section	.text._ZNSt10filesystem7__cxx114pathC2IA39_cS1_EERKT_NS1_6formatE,"axG",@progbits,_ZNSt10filesystem7__cxx114pathC5IA39_cS1_EERKT_NS1_6formatE,comdat
	.align 2
	.weak	_ZNSt10filesystem7__cxx114pathC2IA39_cS1_EERKT_NS1_6formatE
	.type	_ZNSt10filesystem7__cxx114pathC2IA39_cS1_EERKT_NS1_6formatE, @function
_ZNSt10filesystem7__cxx114pathC2IA39_cS1_EERKT_NS1_6formatE:
.LFB5060:
	.cfi_startproc
	.cfi_personality 0x9b,DW.ref.__gxx_personality_v0
	.cfi_lsda 0x1b,.LLSDA5060
	endbr64
	pushq	%rbp
	.cfi_def_cfa_offset 16
	.cfi_offset 6, -16
	movq	%rsp, %rbp
	.cfi_def_cfa_register 6
	pushq	%rbx
	subq	$104, %rsp
	.cfi_offset 3, -24
	movq	%rdi, -88(%rbp)
	movq	%rsi, -96(%rbp)
	movl	%edx, %eax
	movb	%al, -100(%rbp)
	movq	%fs:40, %rax
	movq	%rax, -24(%rbp)
	xorl	%eax, %eax
	movq	-88(%rbp), %rbx
	leaq	-65(%rbp), %rax
	movq	%rax, %rdi
	call	_ZNSaIcEC1Ev@PLT
	movq	-96(%rbp), %rax
	movq	%rax, %rdi
	call	_ZNSt10filesystem7__cxx118__detail17__effective_rangeIA39_cEEDaRKT_
	movq	%rax, -48(%rbp)
	movq	%rdx, -40(%rbp)
	leaq	-48(%rbp), %rax
	movq	%rax, %rdi
	call	_ZNSt10filesystem7__cxx114path10_S_convertISt17basic_string_viewIcSt11char_traitsIcEEEEDaRKT_
	movq	%rax, -64(%rbp)
	movq	%rdx, -56(%rbp)
	leaq	-65(%rbp), %rdx
	leaq	-64(%rbp), %rax
	movq	%rax, %rsi
	movq	%rbx, %rdi
.LEHB20:
	call	_ZNSt7__cxx1112basic_stringIcSt11char_traitsIcESaIcEEC1ISt17basic_string_viewIcS2_EvEERKT_RKS3_
.LEHE20:
	leaq	-65(%rbp), %rax
	movq	%rax, %rdi
	call	_ZNSaIcED1Ev@PLT
	movq	-88(%rbp), %rax
	addq	$32, %rax
	movq	%rax, %rdi
.LEHB21:
	call	_ZNSt10filesystem7__cxx114path5_ListC1Ev@PLT
.LEHE21:
	movq	-88(%rbp), %rax
	movq	%rax, %rdi
.LEHB22:
	call	_ZNSt10filesystem7__cxx114path14_M_split_cmptsEv@PLT
.LEHE22:
	jmp	.L182
.L179:
	endbr64
	movq	%rax, %rbx
	leaq	-65(%rbp), %rax
	movq	%rax, %rdi
	call	_ZNSaIcED1Ev@PLT
	movq	%rbx, %rax
	movq	%rax, %rdi
.LEHB23:
	call	_Unwind_Resume@PLT
.L181:
	endbr64
	movq	%rax, %rbx
	movq	-88(%rbp), %rax
	addq	$32, %rax
	movq	%rax, %rdi
	call	_ZNSt10filesystem7__cxx114path5_ListD1Ev
	jmp	.L177
.L180:
	endbr64
	movq	%rax, %rbx
.L177:
	movq	-88(%rbp), %rax
	movq	%rax, %rdi
	call	_ZNSt7__cxx1112basic_stringIcSt11char_traitsIcESaIcEED1Ev@PLT
	movq	%rbx, %rax
	movq	%rax, %rdi
	call	_Unwind_Resume@PLT
.LEHE23:
.L182:
	movq	-24(%rbp), %rax
	subq	%fs:40, %rax
	je	.L178
	call	__stack_chk_fail@PLT
.L178:
	movq	-8(%rbp), %rbx
	leave
	.cfi_def_cfa 7, 8
	ret
	.cfi_endproc
.LFE5060:
	.section	.gcc_except_table
.LLSDA5060:
	.byte	0xff
	.byte	0xff
	.byte	0x1
	.uleb128 .LLSDACSE5060-.LLSDACSB5060
.LLSDACSB5060:
	.uleb128 .LEHB20-.LFB5060
	.uleb128 .LEHE20-.LEHB20
	.uleb128 .L179-.LFB5060
	.uleb128 0
	.uleb128 .LEHB21-.LFB5060
	.uleb128 .LEHE21-.LEHB21
	.uleb128 .L180-.LFB5060
	.uleb128 0
	.uleb128 .LEHB22-.LFB5060
	.uleb128 .LEHE22-.LEHB22
	.uleb128 .L181-.LFB5060
	.uleb128 0
	.uleb128 .LEHB23-.LFB5060
	.uleb128 .LEHE23-.LEHB23
	.uleb128 0
	.uleb128 0
.LLSDACSE5060:
	.section	.text._ZNSt10filesystem7__cxx114pathC2IA39_cS1_EERKT_NS1_6formatE,"axG",@progbits,_ZNSt10filesystem7__cxx114pathC5IA39_cS1_EERKT_NS1_6formatE,comdat
	.size	_ZNSt10filesystem7__cxx114pathC2IA39_cS1_EERKT_NS1_6formatE, .-_ZNSt10filesystem7__cxx114pathC2IA39_cS1_EERKT_NS1_6formatE
	.weak	_ZNSt10filesystem7__cxx114pathC1IA39_cS1_EERKT_NS1_6formatE
	.set	_ZNSt10filesystem7__cxx114pathC1IA39_cS1_EERKT_NS1_6formatE,_ZNSt10filesystem7__cxx114pathC2IA39_cS1_EERKT_NS1_6formatE
	.section	.text._ZNSt14basic_ifstreamIcSt11char_traitsIcEEC1INSt10filesystem7__cxx114pathES6_EERKT_St13_Ios_Openmode,"axG",@progbits,_ZNSt14basic_ifstreamIcSt11char_traitsIcEEC1INSt10filesystem7__cxx114pathES6_EERKT_St13_Ios_Openmode,comdat
	.align 2
	.weak	_ZNSt14basic_ifstreamIcSt11char_traitsIcEEC1INSt10filesystem7__cxx114pathES6_EERKT_St13_Ios_Openmode
	.type	_ZNSt14basic_ifstreamIcSt11char_traitsIcEEC1INSt10filesystem7__cxx114pathES6_EERKT_St13_Ios_Openmode, @function
_ZNSt14basic_ifstreamIcSt11char_traitsIcEEC1INSt10filesystem7__cxx114pathES6_EERKT_St13_Ios_Openmode:
.LFB5067:
	.cfi_startproc
	endbr64
	pushq	%rbp
	.cfi_def_cfa_offset 16
	.cfi_offset 6, -16
	movq	%rsp, %rbp
	.cfi_def_cfa_register 6
	subq	$32, %rsp
	movq	%rdi, -8(%rbp)
	movq	%rsi, -16(%rbp)
	movl	%edx, -20(%rbp)
	movq	-16(%rbp), %rax
	movq	%rax, %rdi
	call	_ZNKSt10filesystem7__cxx114path5c_strEv
	movq	%rax, %rcx
	movl	-20(%rbp), %edx
	movq	-8(%rbp), %rax
	movq	%rcx, %rsi
	movq	%rax, %rdi
	call	_ZNSt14basic_ifstreamIcSt11char_traitsIcEEC1EPKcSt13_Ios_Openmode@PLT
	nop
	leave
	.cfi_def_cfa 7, 8
	ret
	.cfi_endproc
.LFE5067:
	.size	_ZNSt14basic_ifstreamIcSt11char_traitsIcEEC1INSt10filesystem7__cxx114pathES6_EERKT_St13_Ios_Openmode, .-_ZNSt14basic_ifstreamIcSt11char_traitsIcEEC1INSt10filesystem7__cxx114pathES6_EERKT_St13_Ios_Openmode
	.section	.text._ZNSt6vectorIcSaIcEEC2EmRKS0_,"axG",@progbits,_ZNSt6vectorIcSaIcEEC5EmRKS0_,comdat
	.align 2
	.weak	_ZNSt6vectorIcSaIcEEC2EmRKS0_
	.type	_ZNSt6vectorIcSaIcEEC2EmRKS0_, @function
_ZNSt6vectorIcSaIcEEC2EmRKS0_:
.LFB5073:
	.cfi_startproc
	.cfi_personality 0x9b,DW.ref.__gxx_personality_v0
	.cfi_lsda 0x1b,.LLSDA5073
	endbr64
	pushq	%rbp
	.cfi_def_cfa_offset 16
	.cfi_offset 6, -16
	movq	%rsp, %rbp
	.cfi_def_cfa_register 6
	pushq	%rbx
	subq	$40, %rsp
	.cfi_offset 3, -24
	movq	%rdi, -24(%rbp)
	movq	%rsi, -32(%rbp)
	movq	%rdx, -40(%rbp)
	movq	-24(%rbp), %rbx
	movq	-40(%rbp), %rdx
	movq	-32(%rbp), %rax
	movq	%rdx, %rsi
	movq	%rax, %rdi
.LEHB24:
	call	_ZNSt6vectorIcSaIcEE17_S_check_init_lenEmRKS0_
	movq	%rax, %rcx
	movq	-40(%rbp), %rax
	movq	%rax, %rdx
	movq	%rcx, %rsi
	movq	%rbx, %rdi
	call	_ZNSt12_Vector_baseIcSaIcEEC2EmRKS0_
.LEHE24:
	movq	-32(%rbp), %rdx
	movq	-24(%rbp), %rax
	movq	%rdx, %rsi
	movq	%rax, %rdi
.LEHB25:
	call	_ZNSt6vectorIcSaIcEE21_M_default_initializeEm
.LEHE25:
	jmp	.L187
.L186:
	endbr64
	movq	%rax, %rbx
	movq	-24(%rbp), %rax
	movq	%rax, %rdi
	call	_ZNSt12_Vector_baseIcSaIcEED2Ev
	movq	%rbx, %rax
	movq	%rax, %rdi
.LEHB26:
	call	_Unwind_Resume@PLT
.LEHE26:
.L187:
	movq	-8(%rbp), %rbx
	leave
	.cfi_def_cfa 7, 8
	ret
	.cfi_endproc
.LFE5073:
	.section	.gcc_except_table
.LLSDA5073:
	.byte	0xff
	.byte	0xff
	.byte	0x1
	.uleb128 .LLSDACSE5073-.LLSDACSB5073
.LLSDACSB5073:
	.uleb128 .LEHB24-.LFB5073
	.uleb128 .LEHE24-.LEHB24
	.uleb128 0
	.uleb128 0
	.uleb128 .LEHB25-.LFB5073
	.uleb128 .LEHE25-.LEHB25
	.uleb128 .L186-.LFB5073
	.uleb128 0
	.uleb128 .LEHB26-.LFB5073
	.uleb128 .LEHE26-.LEHB26
	.uleb128 0
	.uleb128 0
.LLSDACSE5073:
	.section	.text._ZNSt6vectorIcSaIcEEC2EmRKS0_,"axG",@progbits,_ZNSt6vectorIcSaIcEEC5EmRKS0_,comdat
	.size	_ZNSt6vectorIcSaIcEEC2EmRKS0_, .-_ZNSt6vectorIcSaIcEEC2EmRKS0_
	.weak	_ZNSt6vectorIcSaIcEEC1EmRKS0_
	.set	_ZNSt6vectorIcSaIcEEC1EmRKS0_,_ZNSt6vectorIcSaIcEEC2EmRKS0_
	.section	.text._ZNSt6vectorIcSaIcEED2Ev,"axG",@progbits,_ZNSt6vectorIcSaIcEED5Ev,comdat
	.align 2
	.weak	_ZNSt6vectorIcSaIcEED2Ev
	.type	_ZNSt6vectorIcSaIcEED2Ev, @function
_ZNSt6vectorIcSaIcEED2Ev:
.LFB5076:
	.cfi_startproc
	.cfi_personality 0x9b,DW.ref.__gxx_personality_v0
	.cfi_lsda 0x1b,.LLSDA5076
	endbr64
	pushq	%rbp
	.cfi_def_cfa_offset 16
	.cfi_offset 6, -16
	movq	%rsp, %rbp
	.cfi_def_cfa_register 6
	subq	$16, %rsp
	movq	%rdi, -8(%rbp)
	movq	-8(%rbp), %rax
	movq	%rax, %rdi
	call	_ZNSt12_Vector_baseIcSaIcEE19_M_get_Tp_allocatorEv
	movq	%rax, %rdx
	movq	-8(%rbp), %rax
	movq	8(%rax), %rcx
	movq	-8(%rbp), %rax
	movq	(%rax), %rax
	movq	%rcx, %rsi
	movq	%rax, %rdi
	call	_ZSt8_DestroyIPccEvT_S1_RSaIT0_E
	movq	-8(%rbp), %rax
	movq	%rax, %rdi
	call	_ZNSt12_Vector_baseIcSaIcEED2Ev
	nop
	leave
	.cfi_def_cfa 7, 8
	ret
	.cfi_endproc
.LFE5076:
	.section	.gcc_except_table
.LLSDA5076:
	.byte	0xff
	.byte	0xff
	.byte	0x1
	.uleb128 .LLSDACSE5076-.LLSDACSB5076
.LLSDACSB5076:
.LLSDACSE5076:
	.section	.text._ZNSt6vectorIcSaIcEED2Ev,"axG",@progbits,_ZNSt6vectorIcSaIcEED5Ev,comdat
	.size	_ZNSt6vectorIcSaIcEED2Ev, .-_ZNSt6vectorIcSaIcEED2Ev
	.weak	_ZNSt6vectorIcSaIcEED1Ev
	.set	_ZNSt6vectorIcSaIcEED1Ev,_ZNSt6vectorIcSaIcEED2Ev
	.section	.text._ZNSt8_Rb_treeINSt7__cxx1112basic_stringIcSt11char_traitsIcESaIcEEESt4pairIKS5_St6vectorIfSaIfEEESt10_Select1stISB_ESt4lessIS5_ESaISB_EE13_Rb_tree_implISF_Lb1EEC2Ev,"axG",@progbits,_ZNSt8_Rb_treeINSt7__cxx1112basic_stringIcSt11char_traitsIcESaIcEEESt4pairIKS5_St6vectorIfSaIfEEESt10_Select1stISB_ESt4lessIS5_ESaISB_EE13_Rb_tree_implISF_Lb1EEC5Ev,comdat
	.align 2
	.weak	_ZNSt8_Rb_treeINSt7__cxx1112basic_stringIcSt11char_traitsIcESaIcEEESt4pairIKS5_St6vectorIfSaIfEEESt10_Select1stISB_ESt4lessIS5_ESaISB_EE13_Rb_tree_implISF_Lb1EEC2Ev
	.type	_ZNSt8_Rb_treeINSt7__cxx1112basic_stringIcSt11char_traitsIcESaIcEEESt4pairIKS5_St6vectorIfSaIfEEESt10_Select1stISB_ESt4lessIS5_ESaISB_EE13_Rb_tree_implISF_Lb1EEC2Ev, @function
_ZNSt8_Rb_treeINSt7__cxx1112basic_stringIcSt11char_traitsIcESaIcEEESt4pairIKS5_St6vectorIfSaIfEEESt10_Select1stISB_ESt4lessIS5_ESaISB_EE13_Rb_tree_implISF_Lb1EEC2Ev:
.LFB5079:
	.cfi_startproc
	endbr64
	pushq	%rbp
	.cfi_def_cfa_offset 16
	.cfi_offset 6, -16
	movq	%rsp, %rbp
	.cfi_def_cfa_register 6
	subq	$16, %rsp
	movq	%rdi, -8(%rbp)
	movq	-8(%rbp), %rax
	movq	%rax, %rdi
	call	_ZNSaISt13_Rb_tree_nodeISt4pairIKNSt7__cxx1112basic_stringIcSt11char_traitsIcESaIcEEESt6vectorIfSaIfEEEEEC2Ev
	movq	-8(%rbp), %rax
	movq	%rax, %rdi
	call	_ZNSt20_Rb_tree_key_compareISt4lessINSt7__cxx1112basic_stringIcSt11char_traitsIcESaIcEEEEEC2Ev
	movq	-8(%rbp), %rax
	addq	$8, %rax
	movq	%rax, %rdi
	call	_ZNSt15_Rb_tree_headerC2Ev
	nop
	leave
	.cfi_def_cfa 7, 8
	ret
	.cfi_endproc
.LFE5079:
	.size	_ZNSt8_Rb_treeINSt7__cxx1112basic_stringIcSt11char_traitsIcESaIcEEESt4pairIKS5_St6vectorIfSaIfEEESt10_Select1stISB_ESt4lessIS5_ESaISB_EE13_Rb_tree_implISF_Lb1EEC2Ev, .-_ZNSt8_Rb_treeINSt7__cxx1112basic_stringIcSt11char_traitsIcESaIcEEESt4pairIKS5_St6vectorIfSaIfEEESt10_Select1stISB_ESt4lessIS5_ESaISB_EE13_Rb_tree_implISF_Lb1EEC2Ev
	.weak	_ZNSt8_Rb_treeINSt7__cxx1112basic_stringIcSt11char_traitsIcESaIcEEESt4pairIKS5_St6vectorIfSaIfEEESt10_Select1stISB_ESt4lessIS5_ESaISB_EE13_Rb_tree_implISF_Lb1EEC1Ev
	.set	_ZNSt8_Rb_treeINSt7__cxx1112basic_stringIcSt11char_traitsIcESaIcEEESt4pairIKS5_St6vectorIfSaIfEEESt10_Select1stISB_ESt4lessIS5_ESaISB_EE13_Rb_tree_implISF_Lb1EEC1Ev,_ZNSt8_Rb_treeINSt7__cxx1112basic_stringIcSt11char_traitsIcESaIcEEESt4pairIKS5_St6vectorIfSaIfEEESt10_Select1stISB_ESt4lessIS5_ESaISB_EE13_Rb_tree_implISF_Lb1EEC2Ev
	.section	.text._ZNSaISt13_Rb_tree_nodeISt4pairIKNSt7__cxx1112basic_stringIcSt11char_traitsIcESaIcEEESt6vectorIfSaIfEEEEED2Ev,"axG",@progbits,_ZNSaISt13_Rb_tree_nodeISt4pairIKNSt7__cxx1112basic_stringIcSt11char_traitsIcESaIcEEESt6vectorIfSaIfEEEEED5Ev,comdat
	.align 2
	.weak	_ZNSaISt13_Rb_tree_nodeISt4pairIKNSt7__cxx1112basic_stringIcSt11char_traitsIcESaIcEEESt6vectorIfSaIfEEEEED2Ev
	.type	_ZNSaISt13_Rb_tree_nodeISt4pairIKNSt7__cxx1112basic_stringIcSt11char_traitsIcESaIcEEESt6vectorIfSaIfEEEEED2Ev, @function
_ZNSaISt13_Rb_tree_nodeISt4pairIKNSt7__cxx1112basic_stringIcSt11char_traitsIcESaIcEEESt6vectorIfSaIfEEEEED2Ev:
.LFB5082:
	.cfi_startproc
	endbr64
	pushq	%rbp
	.cfi_def_cfa_offset 16
	.cfi_offset 6, -16
	movq	%rsp, %rbp
	.cfi_def_cfa_register 6
	subq	$16, %rsp
	movq	%rdi, -8(%rbp)
	movq	-8(%rbp), %rax
	movq	%rax, %rdi
	call	_ZN9__gnu_cxx13new_allocatorISt13_Rb_tree_nodeISt4pairIKNSt7__cxx1112basic_stringIcSt11char_traitsIcESaIcEEESt6vectorIfSaIfEEEEED2Ev
	nop
	leave
	.cfi_def_cfa 7, 8
	ret
	.cfi_endproc
.LFE5082:
	.size	_ZNSaISt13_Rb_tree_nodeISt4pairIKNSt7__cxx1112basic_stringIcSt11char_traitsIcESaIcEEESt6vectorIfSaIfEEEEED2Ev, .-_ZNSaISt13_Rb_tree_nodeISt4pairIKNSt7__cxx1112basic_stringIcSt11char_traitsIcESaIcEEESt6vectorIfSaIfEEEEED2Ev
	.weak	_ZNSaISt13_Rb_tree_nodeISt4pairIKNSt7__cxx1112basic_stringIcSt11char_traitsIcESaIcEEESt6vectorIfSaIfEEEEED1Ev
	.set	_ZNSaISt13_Rb_tree_nodeISt4pairIKNSt7__cxx1112basic_stringIcSt11char_traitsIcESaIcEEESt6vectorIfSaIfEEEEED1Ev,_ZNSaISt13_Rb_tree_nodeISt4pairIKNSt7__cxx1112basic_stringIcSt11char_traitsIcESaIcEEESt6vectorIfSaIfEEEEED2Ev
	.section	.text._ZNSt8_Rb_treeINSt7__cxx1112basic_stringIcSt11char_traitsIcESaIcEEESt4pairIKS5_St6vectorIfSaIfEEESt10_Select1stISB_ESt4lessIS5_ESaISB_EED2Ev,"axG",@progbits,_ZNSt8_Rb_treeINSt7__cxx1112basic_stringIcSt11char_traitsIcESaIcEEESt4pairIKS5_St6vectorIfSaIfEEESt10_Select1stISB_ESt4lessIS5_ESaISB_EED5Ev,comdat
	.align 2
	.weak	_ZNSt8_Rb_treeINSt7__cxx1112basic_stringIcSt11char_traitsIcESaIcEEESt4pairIKS5_St6vectorIfSaIfEEESt10_Select1stISB_ESt4lessIS5_ESaISB_EED2Ev
	.type	_ZNSt8_Rb_treeINSt7__cxx1112basic_stringIcSt11char_traitsIcESaIcEEESt4pairIKS5_St6vectorIfSaIfEEESt10_Select1stISB_ESt4lessIS5_ESaISB_EED2Ev, @function
_ZNSt8_Rb_treeINSt7__cxx1112basic_stringIcSt11char_traitsIcESaIcEEESt4pairIKS5_St6vectorIfSaIfEEESt10_Select1stISB_ESt4lessIS5_ESaISB_EED2Ev:
.LFB5085:
	.cfi_startproc
	.cfi_personality 0x9b,DW.ref.__gxx_personality_v0
	.cfi_lsda 0x1b,.LLSDA5085
	endbr64
	pushq	%rbp
	.cfi_def_cfa_offset 16
	.cfi_offset 6, -16
	movq	%rsp, %rbp
	.cfi_def_cfa_register 6
	subq	$16, %rsp
	movq	%rdi, -8(%rbp)
	movq	-8(%rbp), %rax
	movq	%rax, %rdi
	call	_ZNSt8_Rb_treeINSt7__cxx1112basic_stringIcSt11char_traitsIcESaIcEEESt4pairIKS5_St6vectorIfSaIfEEESt10_Select1stISB_ESt4lessIS5_ESaISB_EE8_M_beginEv
	movq	%rax, %rdx
	movq	-8(%rbp), %rax
	movq	%rdx, %rsi
	movq	%rax, %rdi
	call	_ZNSt8_Rb_treeINSt7__cxx1112basic_stringIcSt11char_traitsIcESaIcEEESt4pairIKS5_St6vectorIfSaIfEEESt10_Select1stISB_ESt4lessIS5_ESaISB_EE8_M_eraseEPSt13_Rb_tree_nodeISB_E
	movq	-8(%rbp), %rax
	movq	%rax, %rdi
	call	_ZNSt8_Rb_treeINSt7__cxx1112basic_stringIcSt11char_traitsIcESaIcEEESt4pairIKS5_St6vectorIfSaIfEEESt10_Select1stISB_ESt4lessIS5_ESaISB_EE13_Rb_tree_implISF_Lb1EED1Ev
	nop
	leave
	.cfi_def_cfa 7, 8
	ret
	.cfi_endproc
.LFE5085:
	.section	.gcc_except_table
.LLSDA5085:
	.byte	0xff
	.byte	0xff
	.byte	0x1
	.uleb128 .LLSDACSE5085-.LLSDACSB5085
.LLSDACSB5085:
.LLSDACSE5085:
	.section	.text._ZNSt8_Rb_treeINSt7__cxx1112basic_stringIcSt11char_traitsIcESaIcEEESt4pairIKS5_St6vectorIfSaIfEEESt10_Select1stISB_ESt4lessIS5_ESaISB_EED2Ev,"axG",@progbits,_ZNSt8_Rb_treeINSt7__cxx1112basic_stringIcSt11char_traitsIcESaIcEEESt4pairIKS5_St6vectorIfSaIfEEESt10_Select1stISB_ESt4lessIS5_ESaISB_EED5Ev,comdat
	.size	_ZNSt8_Rb_treeINSt7__cxx1112basic_stringIcSt11char_traitsIcESaIcEEESt4pairIKS5_St6vectorIfSaIfEEESt10_Select1stISB_ESt4lessIS5_ESaISB_EED2Ev, .-_ZNSt8_Rb_treeINSt7__cxx1112basic_stringIcSt11char_traitsIcESaIcEEESt4pairIKS5_St6vectorIfSaIfEEESt10_Select1stISB_ESt4lessIS5_ESaISB_EED2Ev
	.weak	_ZNSt8_Rb_treeINSt7__cxx1112basic_stringIcSt11char_traitsIcESaIcEEESt4pairIKS5_St6vectorIfSaIfEEESt10_Select1stISB_ESt4lessIS5_ESaISB_EED1Ev
	.set	_ZNSt8_Rb_treeINSt7__cxx1112basic_stringIcSt11char_traitsIcESaIcEEESt4pairIKS5_St6vectorIfSaIfEEESt10_Select1stISB_ESt4lessIS5_ESaISB_EED1Ev,_ZNSt8_Rb_treeINSt7__cxx1112basic_stringIcSt11char_traitsIcESaIcEEESt4pairIKS5_St6vectorIfSaIfEEESt10_Select1stISB_ESt4lessIS5_ESaISB_EED2Ev
	.section	.text._ZNSt6vectorIcSaIcEE4dataEv,"axG",@progbits,_ZNSt6vectorIcSaIcEE4dataEv,comdat
	.align 2
	.weak	_ZNSt6vectorIcSaIcEE4dataEv
	.type	_ZNSt6vectorIcSaIcEE4dataEv, @function
_ZNSt6vectorIcSaIcEE4dataEv:
.LFB5087:
	.cfi_startproc
	endbr64
	pushq	%rbp
	.cfi_def_cfa_offset 16
	.cfi_offset 6, -16
	movq	%rsp, %rbp
	.cfi_def_cfa_register 6
	subq	$16, %rsp
	movq	%rdi, -8(%rbp)
	movq	-8(%rbp), %rax
	movq	(%rax), %rdx
	movq	-8(%rbp), %rax
	movq	%rdx, %rsi
	movq	%rax, %rdi
	call	_ZNKSt6vectorIcSaIcEE11_M_data_ptrIcEEPT_S4_
	leave
	.cfi_def_cfa 7, 8
	ret
	.cfi_endproc
.LFE5087:
	.size	_ZNSt6vectorIcSaIcEE4dataEv, .-_ZNSt6vectorIcSaIcEE4dataEv
	.section	.text._ZSt3minImERKT_S2_S2_,"axG",@progbits,_ZSt3minImERKT_S2_S2_,comdat
	.weak	_ZSt3minImERKT_S2_S2_
	.type	_ZSt3minImERKT_S2_S2_, @function
_ZSt3minImERKT_S2_S2_:
.LFB5090:
	.cfi_startproc
	endbr64
	pushq	%rbp
	.cfi_def_cfa_offset 16
	.cfi_offset 6, -16
	movq	%rsp, %rbp
	.cfi_def_cfa_register 6
	movq	%rdi, -8(%rbp)
	movq	%rsi, -16(%rbp)
	movq	-16(%rbp), %rax
	movq	(%rax), %rdx
	movq	-8(%rbp), %rax
	movq	(%rax), %rax
	cmpq	%rax, %rdx
	jnb	.L195
	movq	-16(%rbp), %rax
	jmp	.L196
.L195:
	movq	-8(%rbp), %rax
.L196:
	popq	%rbp
	.cfi_def_cfa 7, 8
	ret
	.cfi_endproc
.LFE5090:
	.size	_ZSt3minImERKT_S2_S2_, .-_ZSt3minImERKT_S2_S2_
	.section	.rodata
.LC11:
	.string	"basic_string_view::substr"
	.section	.text._ZNKSt17basic_string_viewIcSt11char_traitsIcEE6substrEmm,"axG",@progbits,_ZNKSt17basic_string_viewIcSt11char_traitsIcEE6substrEmm,comdat
	.align 2
	.weak	_ZNKSt17basic_string_viewIcSt11char_traitsIcEE6substrEmm
	.type	_ZNKSt17basic_string_viewIcSt11char_traitsIcEE6substrEmm, @function
_ZNKSt17basic_string_viewIcSt11char_traitsIcEE6substrEmm:
.LFB5089:
	.cfi_startproc
	endbr64
	pushq	%rbp
	.cfi_def_cfa_offset 16
	.cfi_offset 6, -16
	movq	%rsp, %rbp
	.cfi_def_cfa_register 6
	subq	$80, %rsp
	movq	%rdi, -56(%rbp)
	movq	%rsi, -64(%rbp)
	movq	%rdx, -72(%rbp)
	movq	%fs:40, %rax
	movq	%rax, -8(%rbp)
	xorl	%eax, %eax
	movq	-56(%rbp), %rax
	movq	%rax, %rdi
	call	_ZNKSt17basic_string_viewIcSt11char_traitsIcEE4sizeEv
	movq	%rax, %rcx
	movq	-64(%rbp), %rax
	leaq	.LC11(%rip), %rdx
	movq	%rax, %rsi
	movq	%rcx, %rdi
	call	_ZSt10__sv_checkmmPKc
	movq	%rax, -64(%rbp)
	movq	-56(%rbp), %rax
	movq	(%rax), %rax
	subq	-64(%rbp), %rax
	movq	%rax, -32(%rbp)
	leaq	-32(%rbp), %rdx
	leaq	-72(%rbp), %rax
	movq	%rdx, %rsi
	movq	%rax, %rdi
	call	_ZSt3minImERKT_S2_S2_
	movq	(%rax), %rax
	movq	%rax, -40(%rbp)
	movq	-56(%rbp), %rax
	movq	8(%rax), %rdx
	movq	-64(%rbp), %rax
	leaq	(%rdx,%rax), %rcx
	movq	-40(%rbp), %rdx
	leaq	-32(%rbp), %rax
	movq	%rcx, %rsi
	movq	%rax, %rdi
	call	_ZNSt17basic_string_viewIcSt11char_traitsIcEEC1EPKcm
	movq	-32(%rbp), %rax
	movq	-24(%rbp), %rdx
	movq	-8(%rbp), %rcx
	subq	%fs:40, %rcx
	je	.L199
	call	__stack_chk_fail@PLT
.L199:
	leave
	.cfi_def_cfa 7, 8
	ret
	.cfi_endproc
.LFE5089:
	.size	_ZNKSt17basic_string_viewIcSt11char_traitsIcEE6substrEmm, .-_ZNKSt17basic_string_viewIcSt11char_traitsIcEE6substrEmm
	.section	.text._ZNSt7__cxx1112basic_stringIcSt11char_traitsIcESaIcEEC2ISt17basic_string_viewIcS2_EvEERKT_RKS3_,"axG",@progbits,_ZNSt7__cxx1112basic_stringIcSt11char_traitsIcESaIcEEC5ISt17basic_string_viewIcS2_EvEERKT_RKS3_,comdat
	.align 2
	.weak	_ZNSt7__cxx1112basic_stringIcSt11char_traitsIcESaIcEEC2ISt17basic_string_viewIcS2_EvEERKT_RKS3_
	.type	_ZNSt7__cxx1112basic_stringIcSt11char_traitsIcESaIcEEC2ISt17basic_string_viewIcS2_EvEERKT_RKS3_, @function
_ZNSt7__cxx1112basic_stringIcSt11char_traitsIcESaIcEEC2ISt17basic_string_viewIcS2_EvEERKT_RKS3_:
.LFB5092:
	.cfi_startproc
	endbr64
	pushq	%rbp
	.cfi_def_cfa_offset 16
	.cfi_offset 6, -16
	movq	%rsp, %rbp
	.cfi_def_cfa_register 6
	pushq	%rbx
	subq	$72, %rsp
	.cfi_offset 3, -24
	movq	%rdi, -56(%rbp)
	movq	%rsi, -64(%rbp)
	movq	%rdx, -72(%rbp)
	movq	%fs:40, %rax
	movq	%rax, -24(%rbp)
	xorl	%eax, %eax
	movq	-64(%rbp), %rax
	movq	(%rax), %rdx
	movq	8(%rax), %rax
	movq	%rdx, %rdi
	movq	%rax, %rsi
	call	_ZNSt7__cxx1112basic_stringIcSt11char_traitsIcESaIcEE17_S_to_string_viewESt17basic_string_viewIcS2_E@PLT
	movq	%rax, %rcx
	movq	%rdx, %rbx
	leaq	-48(%rbp), %rax
	movq	%rcx, %rsi
	movq	%rax, %rdi
	call	_ZNSt7__cxx1112basic_stringIcSt11char_traitsIcESaIcEE12__sv_wrapperC1ESt17basic_string_viewIcS2_E@PLT
	movq	-72(%rbp), %rcx
	movq	-48(%rbp), %rsi
	movq	-40(%rbp), %rdx
	movq	-56(%rbp), %rax
	movq	%rax, %rdi
	call	_ZNSt7__cxx1112basic_stringIcSt11char_traitsIcESaIcEEC1ENS4_12__sv_wrapperERKS3_@PLT
	nop
	movq	-24(%rbp), %rax
	subq	%fs:40, %rax
	je	.L201
	call	__stack_chk_fail@PLT
.L201:
	movq	-8(%rbp), %rbx
	leave
	.cfi_def_cfa 7, 8
	ret
	.cfi_endproc
.LFE5092:
	.size	_ZNSt7__cxx1112basic_stringIcSt11char_traitsIcESaIcEEC2ISt17basic_string_viewIcS2_EvEERKT_RKS3_, .-_ZNSt7__cxx1112basic_stringIcSt11char_traitsIcESaIcEEC2ISt17basic_string_viewIcS2_EvEERKT_RKS3_
	.weak	_ZNSt7__cxx1112basic_stringIcSt11char_traitsIcESaIcEEC1ISt17basic_string_viewIcS2_EvEERKT_RKS3_
	.set	_ZNSt7__cxx1112basic_stringIcSt11char_traitsIcESaIcEEC1ISt17basic_string_viewIcS2_EvEERKT_RKS3_,_ZNSt7__cxx1112basic_stringIcSt11char_traitsIcESaIcEEC2ISt17basic_string_viewIcS2_EvEERKT_RKS3_
	.section	.text._ZNSt6vectorIcSaIcEE5beginEv,"axG",@progbits,_ZNSt6vectorIcSaIcEE5beginEv,comdat
	.align 2
	.weak	_ZNSt6vectorIcSaIcEE5beginEv
	.type	_ZNSt6vectorIcSaIcEE5beginEv, @function
_ZNSt6vectorIcSaIcEE5beginEv:
.LFB5096:
	.cfi_startproc
	endbr64
	pushq	%rbp
	.cfi_def_cfa_offset 16
	.cfi_offset 6, -16
	movq	%rsp, %rbp
	.cfi_def_cfa_register 6
	subq	$32, %rsp
	movq	%rdi, -24(%rbp)
	movq	%fs:40, %rax
	movq	%rax, -8(%rbp)
	xorl	%eax, %eax
	movq	-24(%rbp), %rdx
	leaq	-16(%rbp), %rax
	movq	%rdx, %rsi
	movq	%rax, %rdi
	call	_ZN9__gnu_cxx17__normal_iteratorIPcSt6vectorIcSaIcEEEC1ERKS1_
	movq	-16(%rbp), %rax
	movq	-8(%rbp), %rdx
	subq	%fs:40, %rdx
	je	.L204
	call	__stack_chk_fail@PLT
.L204:
	leave
	.cfi_def_cfa 7, 8
	ret
	.cfi_endproc
.LFE5096:
	.size	_ZNSt6vectorIcSaIcEE5beginEv, .-_ZNSt6vectorIcSaIcEE5beginEv
	.section	.text._ZSt4copyIN9__gnu_cxx17__normal_iteratorIPcNSt7__cxx1112basic_stringIcSt11char_traitsIcESaIcEEEEENS1_IS2_St6vectorIcS7_EEEET0_T_SE_SD_,"axG",@progbits,_ZSt4copyIN9__gnu_cxx17__normal_iteratorIPcNSt7__cxx1112basic_stringIcSt11char_traitsIcESaIcEEEEENS1_IS2_St6vectorIcS7_EEEET0_T_SE_SD_,comdat
	.weak	_ZSt4copyIN9__gnu_cxx17__normal_iteratorIPcNSt7__cxx1112basic_stringIcSt11char_traitsIcESaIcEEEEENS1_IS2_St6vectorIcS7_EEEET0_T_SE_SD_
	.type	_ZSt4copyIN9__gnu_cxx17__normal_iteratorIPcNSt7__cxx1112basic_stringIcSt11char_traitsIcESaIcEEEEENS1_IS2_St6vectorIcS7_EEEET0_T_SE_SD_, @function
_ZSt4copyIN9__gnu_cxx17__normal_iteratorIPcNSt7__cxx1112basic_stringIcSt11char_traitsIcESaIcEEEEENS1_IS2_St6vectorIcS7_EEEET0_T_SE_SD_:
.LFB5097:
	.cfi_startproc
	endbr64
	pushq	%rbp
	.cfi_def_cfa_offset 16
	.cfi_offset 6, -16
	movq	%rsp, %rbp
	.cfi_def_cfa_register 6
	pushq	%rbx
	subq	$40, %rsp
	.cfi_offset 3, -24
	movq	%rdi, -24(%rbp)
	movq	%rsi, -32(%rbp)
	movq	%rdx, -40(%rbp)
	movq	-32(%rbp), %rax
	movq	%rax, %rdi
	call	_ZSt12__miter_baseIN9__gnu_cxx17__normal_iteratorIPcNSt7__cxx1112basic_stringIcSt11char_traitsIcESaIcEEEEEET_SA_
	movq	%rax, %rbx
	movq	-24(%rbp), %rax
	movq	%rax, %rdi
	call	_ZSt12__miter_baseIN9__gnu_cxx17__normal_iteratorIPcNSt7__cxx1112basic_stringIcSt11char_traitsIcESaIcEEEEEET_SA_
	movq	%rax, %rcx
	movq	-40(%rbp), %rax
	movq	%rax, %rdx
	movq	%rbx, %rsi
	movq	%rcx, %rdi
	call	_ZSt13__copy_move_aILb0EN9__gnu_cxx17__normal_iteratorIPcNSt7__cxx1112basic_stringIcSt11char_traitsIcESaIcEEEEENS1_IS2_St6vectorIcS7_EEEET1_T0_SE_SD_
	movq	-8(%rbp), %rbx
	leave
	.cfi_def_cfa 7, 8
	ret
	.cfi_endproc
.LFE5097:
	.size	_ZSt4copyIN9__gnu_cxx17__normal_iteratorIPcNSt7__cxx1112basic_stringIcSt11char_traitsIcESaIcEEEEENS1_IS2_St6vectorIcS7_EEEET0_T_SE_SD_, .-_ZSt4copyIN9__gnu_cxx17__normal_iteratorIPcNSt7__cxx1112basic_stringIcSt11char_traitsIcESaIcEEEEENS1_IS2_St6vectorIcS7_EEEET0_T_SE_SD_
	.section	.text._ZNSt3mapINSt7__cxx1112basic_stringIcSt11char_traitsIcESaIcEEESt6vectorIfSaIfEESt4lessIS5_ESaISt4pairIKS5_S8_EEE5beginEv,"axG",@progbits,_ZNSt3mapINSt7__cxx1112basic_stringIcSt11char_traitsIcESaIcEEESt6vectorIfSaIfEESt4lessIS5_ESaISt4pairIKS5_S8_EEE5beginEv,comdat
	.align 2
	.weak	_ZNSt3mapINSt7__cxx1112basic_stringIcSt11char_traitsIcESaIcEEESt6vectorIfSaIfEESt4lessIS5_ESaISt4pairIKS5_S8_EEE5beginEv
	.type	_ZNSt3mapINSt7__cxx1112basic_stringIcSt11char_traitsIcESaIcEEESt6vectorIfSaIfEESt4lessIS5_ESaISt4pairIKS5_S8_EEE5beginEv, @function
_ZNSt3mapINSt7__cxx1112basic_stringIcSt11char_traitsIcESaIcEEESt6vectorIfSaIfEESt4lessIS5_ESaISt4pairIKS5_S8_EEE5beginEv:
.LFB5098:
	.cfi_startproc
	endbr64
	pushq	%rbp
	.cfi_def_cfa_offset 16
	.cfi_offset 6, -16
	movq	%rsp, %rbp
	.cfi_def_cfa_register 6
	subq	$16, %rsp
	movq	%rdi, -8(%rbp)
	movq	-8(%rbp), %rax
	movq	%rax, %rdi
	call	_ZNSt8_Rb_treeINSt7__cxx1112basic_stringIcSt11char_traitsIcESaIcEEESt4pairIKS5_St6vectorIfSaIfEEESt10_Select1stISB_ESt4lessIS5_ESaISB_EE5beginEv
	leave
	.cfi_def_cfa 7, 8
	ret
	.cfi_endproc
.LFE5098:
	.size	_ZNSt3mapINSt7__cxx1112basic_stringIcSt11char_traitsIcESaIcEEESt6vectorIfSaIfEESt4lessIS5_ESaISt4pairIKS5_S8_EEE5beginEv, .-_ZNSt3mapINSt7__cxx1112basic_stringIcSt11char_traitsIcESaIcEEESt6vectorIfSaIfEESt4lessIS5_ESaISt4pairIKS5_S8_EEE5beginEv
	.section	.text._ZNSt17_Rb_tree_iteratorISt4pairIKNSt7__cxx1112basic_stringIcSt11char_traitsIcESaIcEEESt6vectorIfSaIfEEEEppEv,"axG",@progbits,_ZNSt17_Rb_tree_iteratorISt4pairIKNSt7__cxx1112basic_stringIcSt11char_traitsIcESaIcEEESt6vectorIfSaIfEEEEppEv,comdat
	.align 2
	.weak	_ZNSt17_Rb_tree_iteratorISt4pairIKNSt7__cxx1112basic_stringIcSt11char_traitsIcESaIcEEESt6vectorIfSaIfEEEEppEv
	.type	_ZNSt17_Rb_tree_iteratorISt4pairIKNSt7__cxx1112basic_stringIcSt11char_traitsIcESaIcEEESt6vectorIfSaIfEEEEppEv, @function
_ZNSt17_Rb_tree_iteratorISt4pairIKNSt7__cxx1112basic_stringIcSt11char_traitsIcESaIcEEESt6vectorIfSaIfEEEEppEv:
.LFB5099:
	.cfi_startproc
	endbr64
	pushq	%rbp
	.cfi_def_cfa_offset 16
	.cfi_offset 6, -16
	movq	%rsp, %rbp
	.cfi_def_cfa_register 6
	subq	$16, %rsp
	movq	%rdi, -8(%rbp)
	movq	-8(%rbp), %rax
	movq	(%rax), %rax
	movq	%rax, %rdi
	call	_ZSt18_Rb_tree_incrementPSt18_Rb_tree_node_base@PLT
	movq	-8(%rbp), %rdx
	movq	%rax, (%rdx)
	movq	-8(%rbp), %rax
	leave
	.cfi_def_cfa 7, 8
	ret
	.cfi_endproc
.LFE5099:
	.size	_ZNSt17_Rb_tree_iteratorISt4pairIKNSt7__cxx1112basic_stringIcSt11char_traitsIcESaIcEEESt6vectorIfSaIfEEEEppEv, .-_ZNSt17_Rb_tree_iteratorISt4pairIKNSt7__cxx1112basic_stringIcSt11char_traitsIcESaIcEEESt6vectorIfSaIfEEEEppEv
	.section	.text._ZNKSt17_Rb_tree_iteratorISt4pairIKNSt7__cxx1112basic_stringIcSt11char_traitsIcESaIcEEESt6vectorIfSaIfEEEEdeEv,"axG",@progbits,_ZNKSt17_Rb_tree_iteratorISt4pairIKNSt7__cxx1112basic_stringIcSt11char_traitsIcESaIcEEESt6vectorIfSaIfEEEEdeEv,comdat
	.align 2
	.weak	_ZNKSt17_Rb_tree_iteratorISt4pairIKNSt7__cxx1112basic_stringIcSt11char_traitsIcESaIcEEESt6vectorIfSaIfEEEEdeEv
	.type	_ZNKSt17_Rb_tree_iteratorISt4pairIKNSt7__cxx1112basic_stringIcSt11char_traitsIcESaIcEEESt6vectorIfSaIfEEEEdeEv, @function
_ZNKSt17_Rb_tree_iteratorISt4pairIKNSt7__cxx1112basic_stringIcSt11char_traitsIcESaIcEEESt6vectorIfSaIfEEEEdeEv:
.LFB5100:
	.cfi_startproc
	endbr64
	pushq	%rbp
	.cfi_def_cfa_offset 16
	.cfi_offset 6, -16
	movq	%rsp, %rbp
	.cfi_def_cfa_register 6
	subq	$16, %rsp
	movq	%rdi, -8(%rbp)
	movq	-8(%rbp), %rax
	movq	(%rax), %rax
	movq	%rax, %rdi
	call	_ZNSt13_Rb_tree_nodeISt4pairIKNSt7__cxx1112basic_stringIcSt11char_traitsIcESaIcEEESt6vectorIfSaIfEEEE9_M_valptrEv
	leave
	.cfi_def_cfa 7, 8
	ret
	.cfi_endproc
.LFE5100:
	.size	_ZNKSt17_Rb_tree_iteratorISt4pairIKNSt7__cxx1112basic_stringIcSt11char_traitsIcESaIcEEESt6vectorIfSaIfEEEEdeEv, .-_ZNKSt17_Rb_tree_iteratorISt4pairIKNSt7__cxx1112basic_stringIcSt11char_traitsIcESaIcEEESt6vectorIfSaIfEEEEdeEv
	.section	.text._ZNSt10__pair_getILm0EE11__const_getIKNSt7__cxx1112basic_stringIcSt11char_traitsIcESaIcEEESt6vectorIfSaIfEEEERKT_RKSt4pairISC_T0_E,"axG",@progbits,_ZNSt10__pair_getILm0EE11__const_getIKNSt7__cxx1112basic_stringIcSt11char_traitsIcESaIcEEESt6vectorIfSaIfEEEERKT_RKSt4pairISC_T0_E,comdat
	.weak	_ZNSt10__pair_getILm0EE11__const_getIKNSt7__cxx1112basic_stringIcSt11char_traitsIcESaIcEEESt6vectorIfSaIfEEEERKT_RKSt4pairISC_T0_E
	.type	_ZNSt10__pair_getILm0EE11__const_getIKNSt7__cxx1112basic_stringIcSt11char_traitsIcESaIcEEESt6vectorIfSaIfEEEERKT_RKSt4pairISC_T0_E, @function
_ZNSt10__pair_getILm0EE11__const_getIKNSt7__cxx1112basic_stringIcSt11char_traitsIcESaIcEEESt6vectorIfSaIfEEEERKT_RKSt4pairISC_T0_E:
.LFB5101:
	.cfi_startproc
	endbr64
	pushq	%rbp
	.cfi_def_cfa_offset 16
	.cfi_offset 6, -16
	movq	%rsp, %rbp
	.cfi_def_cfa_register 6
	movq	%rdi, -8(%rbp)
	movq	-8(%rbp), %rax
	popq	%rbp
	.cfi_def_cfa 7, 8
	ret
	.cfi_endproc
.LFE5101:
	.size	_ZNSt10__pair_getILm0EE11__const_getIKNSt7__cxx1112basic_stringIcSt11char_traitsIcESaIcEEESt6vectorIfSaIfEEEERKT_RKSt4pairISC_T0_E, .-_ZNSt10__pair_getILm0EE11__const_getIKNSt7__cxx1112basic_stringIcSt11char_traitsIcESaIcEEESt6vectorIfSaIfEEEERKT_RKSt4pairISC_T0_E
	.section	.text._ZNSt10__pair_getILm1EE11__const_getIKNSt7__cxx1112basic_stringIcSt11char_traitsIcESaIcEEESt6vectorIfSaIfEEEERKT0_RKSt4pairIT_SC_E,"axG",@progbits,_ZNSt10__pair_getILm1EE11__const_getIKNSt7__cxx1112basic_stringIcSt11char_traitsIcESaIcEEESt6vectorIfSaIfEEEERKT0_RKSt4pairIT_SC_E,comdat
	.weak	_ZNSt10__pair_getILm1EE11__const_getIKNSt7__cxx1112basic_stringIcSt11char_traitsIcESaIcEEESt6vectorIfSaIfEEEERKT0_RKSt4pairIT_SC_E
	.type	_ZNSt10__pair_getILm1EE11__const_getIKNSt7__cxx1112basic_stringIcSt11char_traitsIcESaIcEEESt6vectorIfSaIfEEEERKT0_RKSt4pairIT_SC_E, @function
_ZNSt10__pair_getILm1EE11__const_getIKNSt7__cxx1112basic_stringIcSt11char_traitsIcESaIcEEESt6vectorIfSaIfEEEERKT0_RKSt4pairIT_SC_E:
.LFB5102:
	.cfi_startproc
	endbr64
	pushq	%rbp
	.cfi_def_cfa_offset 16
	.cfi_offset 6, -16
	movq	%rsp, %rbp
	.cfi_def_cfa_register 6
	movq	%rdi, -8(%rbp)
	movq	-8(%rbp), %rax
	addq	$32, %rax
	popq	%rbp
	.cfi_def_cfa 7, 8
	ret
	.cfi_endproc
.LFE5102:
	.size	_ZNSt10__pair_getILm1EE11__const_getIKNSt7__cxx1112basic_stringIcSt11char_traitsIcESaIcEEESt6vectorIfSaIfEEEERKT0_RKSt4pairIT_SC_E, .-_ZNSt10__pair_getILm1EE11__const_getIKNSt7__cxx1112basic_stringIcSt11char_traitsIcESaIcEEESt6vectorIfSaIfEEEERKT0_RKSt4pairIT_SC_E
	.section	.text._ZNKSt6vectorIfSaIfEEixEm,"axG",@progbits,_ZNKSt6vectorIfSaIfEEixEm,comdat
	.align 2
	.weak	_ZNKSt6vectorIfSaIfEEixEm
	.type	_ZNKSt6vectorIfSaIfEEixEm, @function
_ZNKSt6vectorIfSaIfEEixEm:
.LFB5103:
	.cfi_startproc
	endbr64
	pushq	%rbp
	.cfi_def_cfa_offset 16
	.cfi_offset 6, -16
	movq	%rsp, %rbp
	.cfi_def_cfa_register 6
	movq	%rdi, -8(%rbp)
	movq	%rsi, -16(%rbp)
	movq	-8(%rbp), %rax
	movq	(%rax), %rdx
	movq	-16(%rbp), %rax
	salq	$2, %rax
	addq	%rdx, %rax
	popq	%rbp
	.cfi_def_cfa 7, 8
	ret
	.cfi_endproc
.LFE5103:
	.size	_ZNKSt6vectorIfSaIfEEixEm, .-_ZNKSt6vectorIfSaIfEEixEm
	.section	.text._ZNSt15__uniq_ptr_implINSt10filesystem7__cxx114path5_List5_ImplENS3_13_Impl_deleterEE6_M_ptrEv,"axG",@progbits,_ZNSt15__uniq_ptr_implINSt10filesystem7__cxx114path5_List5_ImplENS3_13_Impl_deleterEE6_M_ptrEv,comdat
	.align 2
	.weak	_ZNSt15__uniq_ptr_implINSt10filesystem7__cxx114path5_List5_ImplENS3_13_Impl_deleterEE6_M_ptrEv
	.type	_ZNSt15__uniq_ptr_implINSt10filesystem7__cxx114path5_List5_ImplENS3_13_Impl_deleterEE6_M_ptrEv, @function
_ZNSt15__uniq_ptr_implINSt10filesystem7__cxx114path5_List5_ImplENS3_13_Impl_deleterEE6_M_ptrEv:
.LFB5243:
	.cfi_startproc
	endbr64
	pushq	%rbp
	.cfi_def_cfa_offset 16
	.cfi_offset 6, -16
	movq	%rsp, %rbp
	.cfi_def_cfa_register 6
	subq	$16, %rsp
	movq	%rdi, -8(%rbp)
	movq	-8(%rbp), %rax
	movq	%rax, %rdi
	call	_ZSt3getILm0EJPNSt10filesystem7__cxx114path5_List5_ImplENS3_13_Impl_deleterEEERNSt13tuple_elementIXT_ESt5tupleIJDpT0_EEE4typeERSB_
	leave
	.cfi_def_cfa 7, 8
	ret
	.cfi_endproc
.LFE5243:
	.size	_ZNSt15__uniq_ptr_implINSt10filesystem7__cxx114path5_List5_ImplENS3_13_Impl_deleterEE6_M_ptrEv, .-_ZNSt15__uniq_ptr_implINSt10filesystem7__cxx114path5_List5_ImplENS3_13_Impl_deleterEE6_M_ptrEv
	.section	.text._ZNSt10unique_ptrINSt10filesystem7__cxx114path5_List5_ImplENS3_13_Impl_deleterEE11get_deleterEv,"axG",@progbits,_ZNSt10unique_ptrINSt10filesystem7__cxx114path5_List5_ImplENS3_13_Impl_deleterEE11get_deleterEv,comdat
	.align 2
	.weak	_ZNSt10unique_ptrINSt10filesystem7__cxx114path5_List5_ImplENS3_13_Impl_deleterEE11get_deleterEv
	.type	_ZNSt10unique_ptrINSt10filesystem7__cxx114path5_List5_ImplENS3_13_Impl_deleterEE11get_deleterEv, @function
_ZNSt10unique_ptrINSt10filesystem7__cxx114path5_List5_ImplENS3_13_Impl_deleterEE11get_deleterEv:
.LFB5244:
	.cfi_startproc
	endbr64
	pushq	%rbp
	.cfi_def_cfa_offset 16
	.cfi_offset 6, -16
	movq	%rsp, %rbp
	.cfi_def_cfa_register 6
	subq	$16, %rsp
	movq	%rdi, -8(%rbp)
	movq	-8(%rbp), %rax
	movq	%rax, %rdi
	call	_ZNSt15__uniq_ptr_implINSt10filesystem7__cxx114path5_List5_ImplENS3_13_Impl_deleterEE10_M_deleterEv
	leave
	.cfi_def_cfa 7, 8
	ret
	.cfi_endproc
.LFE5244:
	.size	_ZNSt10unique_ptrINSt10filesystem7__cxx114path5_List5_ImplENS3_13_Impl_deleterEE11get_deleterEv, .-_ZNSt10unique_ptrINSt10filesystem7__cxx114path5_List5_ImplENS3_13_Impl_deleterEE11get_deleterEv
	.section	.text._ZSt4moveIRPNSt10filesystem7__cxx114path5_List5_ImplEEONSt16remove_referenceIT_E4typeEOS8_,"axG",@progbits,_ZSt4moveIRPNSt10filesystem7__cxx114path5_List5_ImplEEONSt16remove_referenceIT_E4typeEOS8_,comdat
	.weak	_ZSt4moveIRPNSt10filesystem7__cxx114path5_List5_ImplEEONSt16remove_referenceIT_E4typeEOS8_
	.type	_ZSt4moveIRPNSt10filesystem7__cxx114path5_List5_ImplEEONSt16remove_referenceIT_E4typeEOS8_, @function
_ZSt4moveIRPNSt10filesystem7__cxx114path5_List5_ImplEEONSt16remove_referenceIT_E4typeEOS8_:
.LFB5245:
	.cfi_startproc
	endbr64
	pushq	%rbp
	.cfi_def_cfa_offset 16
	.cfi_offset 6, -16
	movq	%rsp, %rbp
	.cfi_def_cfa_register 6
	movq	%rdi, -8(%rbp)
	movq	-8(%rbp), %rax
	popq	%rbp
	.cfi_def_cfa 7, 8
	ret
	.cfi_endproc
.LFE5245:
	.size	_ZSt4moveIRPNSt10filesystem7__cxx114path5_List5_ImplEEONSt16remove_referenceIT_E4typeEOS8_, .-_ZSt4moveIRPNSt10filesystem7__cxx114path5_List5_ImplEEONSt16remove_referenceIT_E4typeEOS8_
	.section	.text._ZNSt15__uniq_ptr_implINSt10filesystem7__cxx114path5_List5_ImplENS3_13_Impl_deleterEE10_M_deleterEv,"axG",@progbits,_ZNSt15__uniq_ptr_implINSt10filesystem7__cxx114path5_List5_ImplENS3_13_Impl_deleterEE10_M_deleterEv,comdat
	.align 2
	.weak	_ZNSt15__uniq_ptr_implINSt10filesystem7__cxx114path5_List5_ImplENS3_13_Impl_deleterEE10_M_deleterEv
	.type	_ZNSt15__uniq_ptr_implINSt10filesystem7__cxx114path5_List5_ImplENS3_13_Impl_deleterEE10_M_deleterEv, @function
_ZNSt15__uniq_ptr_implINSt10filesystem7__cxx114path5_List5_ImplENS3_13_Impl_deleterEE10_M_deleterEv:
.LFB5268:
	.cfi_startproc
	endbr64
	pushq	%rbp
	.cfi_def_cfa_offset 16
	.cfi_offset 6, -16
	movq	%rsp, %rbp
	.cfi_def_cfa_register 6
	subq	$16, %rsp
	movq	%rdi, -8(%rbp)
	movq	-8(%rbp), %rax
	movq	%rax, %rdi
	call	_ZSt3getILm1EJPNSt10filesystem7__cxx114path5_List5_ImplENS3_13_Impl_deleterEEERNSt13tuple_elementIXT_ESt5tupleIJDpT0_EEE4typeERSB_
	leave
	.cfi_def_cfa 7, 8
	ret
	.cfi_endproc
.LFE5268:
	.size	_ZNSt15__uniq_ptr_implINSt10filesystem7__cxx114path5_List5_ImplENS3_13_Impl_deleterEE10_M_deleterEv, .-_ZNSt15__uniq_ptr_implINSt10filesystem7__cxx114path5_List5_ImplENS3_13_Impl_deleterEE10_M_deleterEv
	.section	.text._ZNKSt17basic_string_viewIcSt11char_traitsIcEE4sizeEv,"axG",@progbits,_ZNKSt17basic_string_viewIcSt11char_traitsIcEE4sizeEv,comdat
	.align 2
	.weak	_ZNKSt17basic_string_viewIcSt11char_traitsIcEE4sizeEv
	.type	_ZNKSt17basic_string_viewIcSt11char_traitsIcEE4sizeEv, @function
_ZNKSt17basic_string_viewIcSt11char_traitsIcEE4sizeEv:
.LFB5271:
	.cfi_startproc
	endbr64
	pushq	%rbp
	.cfi_def_cfa_offset 16
	.cfi_offset 6, -16
	movq	%rsp, %rbp
	.cfi_def_cfa_register 6
	movq	%rdi, -8(%rbp)
	movq	-8(%rbp), %rax
	movq	(%rax), %rax
	popq	%rbp
	.cfi_def_cfa 7, 8
	ret
	.cfi_endproc
.LFE5271:
	.size	_ZNKSt17basic_string_viewIcSt11char_traitsIcEE4sizeEv, .-_ZNKSt17basic_string_viewIcSt11char_traitsIcEE4sizeEv
	.section	.text._ZNSt8_Rb_treeINSt7__cxx1112basic_stringIcSt11char_traitsIcESaIcEEESt4pairIKS5_St6vectorIfSaIfEEESt10_Select1stISB_ESt4lessIS5_ESaISB_EE4findERS7_,"axG",@progbits,_ZNSt8_Rb_treeINSt7__cxx1112basic_stringIcSt11char_traitsIcESaIcEEESt4pairIKS5_St6vectorIfSaIfEEESt10_Select1stISB_ESt4lessIS5_ESaISB_EE4findERS7_,comdat
	.align 2
	.weak	_ZNSt8_Rb_treeINSt7__cxx1112basic_stringIcSt11char_traitsIcESaIcEEESt4pairIKS5_St6vectorIfSaIfEEESt10_Select1stISB_ESt4lessIS5_ESaISB_EE4findERS7_
	.type	_ZNSt8_Rb_treeINSt7__cxx1112basic_stringIcSt11char_traitsIcESaIcEEESt4pairIKS5_St6vectorIfSaIfEEESt10_Select1stISB_ESt4lessIS5_ESaISB_EE4findERS7_, @function
_ZNSt8_Rb_treeINSt7__cxx1112basic_stringIcSt11char_traitsIcESaIcEEESt4pairIKS5_St6vectorIfSaIfEEESt10_Select1stISB_ESt4lessIS5_ESaISB_EE4findERS7_:
.LFB5341:
	.cfi_startproc
	endbr64
	pushq	%rbp
	.cfi_def_cfa_offset 16
	.cfi_offset 6, -16
	movq	%rsp, %rbp
	.cfi_def_cfa_register 6
	pushq	%rbx
	subq	$56, %rsp
	.cfi_offset 3, -24
	movq	%rdi, -56(%rbp)
	movq	%rsi, -64(%rbp)
	movq	%fs:40, %rax
	movq	%rax, -24(%rbp)
	xorl	%eax, %eax
	movq	-56(%rbp), %rax
	movq	%rax, %rdi
	call	_ZNSt8_Rb_treeINSt7__cxx1112basic_stringIcSt11char_traitsIcESaIcEEESt4pairIKS5_St6vectorIfSaIfEEESt10_Select1stISB_ESt4lessIS5_ESaISB_EE6_M_endEv
	movq	%rax, %rbx
	movq	-56(%rbp), %rax
	movq	%rax, %rdi
	call	_ZNSt8_Rb_treeINSt7__cxx1112basic_stringIcSt11char_traitsIcESaIcEEESt4pairIKS5_St6vectorIfSaIfEEESt10_Select1stISB_ESt4lessIS5_ESaISB_EE8_M_beginEv
	movq	%rax, %rsi
	movq	-64(%rbp), %rdx
	movq	-56(%rbp), %rax
	movq	%rdx, %rcx
	movq	%rbx, %rdx
	movq	%rax, %rdi
	call	_ZNSt8_Rb_treeINSt7__cxx1112basic_stringIcSt11char_traitsIcESaIcEEESt4pairIKS5_St6vectorIfSaIfEEESt10_Select1stISB_ESt4lessIS5_ESaISB_EE14_M_lower_boundEPSt13_Rb_tree_nodeISB_EPSt18_Rb_tree_node_baseRS7_
	movq	%rax, -40(%rbp)
	movq	-56(%rbp), %rax
	movq	%rax, %rdi
	call	_ZNSt8_Rb_treeINSt7__cxx1112basic_stringIcSt11char_traitsIcESaIcEEESt4pairIKS5_St6vectorIfSaIfEEESt10_Select1stISB_ESt4lessIS5_ESaISB_EE3endEv
	movq	%rax, -32(%rbp)
	leaq	-32(%rbp), %rdx
	leaq	-40(%rbp), %rax
	movq	%rdx, %rsi
	movq	%rax, %rdi
	call	_ZSteqRKSt17_Rb_tree_iteratorISt4pairIKNSt7__cxx1112basic_stringIcSt11char_traitsIcESaIcEEESt6vectorIfSaIfEEEESE_
	testb	%al, %al
	jne	.L230
	movq	-56(%rbp), %rbx
	movq	-40(%rbp), %rax
	movq	%rax, %rdi
	call	_ZNSt8_Rb_treeINSt7__cxx1112basic_stringIcSt11char_traitsIcESaIcEEESt4pairIKS5_St6vectorIfSaIfEEESt10_Select1stISB_ESt4lessIS5_ESaISB_EE6_S_keyEPKSt18_Rb_tree_node_base
	movq	%rax, %rdx
	movq	-64(%rbp), %rax
	movq	%rax, %rsi
	movq	%rbx, %rdi
	call	_ZNKSt4lessINSt7__cxx1112basic_stringIcSt11char_traitsIcESaIcEEEEclERKS5_S8_
	testb	%al, %al
	je	.L231
.L230:
	movq	-56(%rbp), %rax
	movq	%rax, %rdi
	call	_ZNSt8_Rb_treeINSt7__cxx1112basic_stringIcSt11char_traitsIcESaIcEEESt4pairIKS5_St6vectorIfSaIfEEESt10_Select1stISB_ESt4lessIS5_ESaISB_EE3endEv
	jmp	.L233
.L231:
	movq	-40(%rbp), %rax
.L233:
	movq	-24(%rbp), %rdx
	subq	%fs:40, %rdx
	je	.L234
	call	__stack_chk_fail@PLT
.L234:
	movq	-8(%rbp), %rbx
	leave
	.cfi_def_cfa 7, 8
	ret
	.cfi_endproc
.LFE5341:
	.size	_ZNSt8_Rb_treeINSt7__cxx1112basic_stringIcSt11char_traitsIcESaIcEEESt4pairIKS5_St6vectorIfSaIfEEESt10_Select1stISB_ESt4lessIS5_ESaISB_EE4findERS7_, .-_ZNSt8_Rb_treeINSt7__cxx1112basic_stringIcSt11char_traitsIcESaIcEEESt4pairIKS5_St6vectorIfSaIfEEESt10_Select1stISB_ESt4lessIS5_ESaISB_EE4findERS7_
	.section	.text._ZNSt8_Rb_treeINSt7__cxx1112basic_stringIcSt11char_traitsIcESaIcEEESt4pairIKS5_St6vectorIfSaIfEEESt10_Select1stISB_ESt4lessIS5_ESaISB_EE3endEv,"axG",@progbits,_ZNSt8_Rb_treeINSt7__cxx1112basic_stringIcSt11char_traitsIcESaIcEEESt4pairIKS5_St6vectorIfSaIfEEESt10_Select1stISB_ESt4lessIS5_ESaISB_EE3endEv,comdat
	.align 2
	.weak	_ZNSt8_Rb_treeINSt7__cxx1112basic_stringIcSt11char_traitsIcESaIcEEESt4pairIKS5_St6vectorIfSaIfEEESt10_Select1stISB_ESt4lessIS5_ESaISB_EE3endEv
	.type	_ZNSt8_Rb_treeINSt7__cxx1112basic_stringIcSt11char_traitsIcESaIcEEESt4pairIKS5_St6vectorIfSaIfEEESt10_Select1stISB_ESt4lessIS5_ESaISB_EE3endEv, @function
_ZNSt8_Rb_treeINSt7__cxx1112basic_stringIcSt11char_traitsIcESaIcEEESt4pairIKS5_St6vectorIfSaIfEEESt10_Select1stISB_ESt4lessIS5_ESaISB_EE3endEv:
.LFB5342:
	.cfi_startproc
	endbr64
	pushq	%rbp
	.cfi_def_cfa_offset 16
	.cfi_offset 6, -16
	movq	%rsp, %rbp
	.cfi_def_cfa_register 6
	subq	$32, %rsp
	movq	%rdi, -24(%rbp)
	movq	%fs:40, %rax
	movq	%rax, -8(%rbp)
	xorl	%eax, %eax
	movq	-24(%rbp), %rax
	leaq	8(%rax), %rdx
	leaq	-16(%rbp), %rax
	movq	%rdx, %rsi
	movq	%rax, %rdi
	call	_ZNSt17_Rb_tree_iteratorISt4pairIKNSt7__cxx1112basic_stringIcSt11char_traitsIcESaIcEEESt6vectorIfSaIfEEEEC1EPSt18_Rb_tree_node_base
	movq	-16(%rbp), %rax
	movq	-8(%rbp), %rdx
	subq	%fs:40, %rdx
	je	.L237
	call	__stack_chk_fail@PLT
.L237:
	leave
	.cfi_def_cfa 7, 8
	ret
	.cfi_endproc
.LFE5342:
	.size	_ZNSt8_Rb_treeINSt7__cxx1112basic_stringIcSt11char_traitsIcESaIcEEESt4pairIKS5_St6vectorIfSaIfEEESt10_Select1stISB_ESt4lessIS5_ESaISB_EE3endEv, .-_ZNSt8_Rb_treeINSt7__cxx1112basic_stringIcSt11char_traitsIcESaIcEEESt4pairIKS5_St6vectorIfSaIfEEESt10_Select1stISB_ESt4lessIS5_ESaISB_EE3endEv
	.section	.text._ZNSt13_Rb_tree_nodeISt4pairIKNSt7__cxx1112basic_stringIcSt11char_traitsIcESaIcEEESt6vectorIfSaIfEEEE9_M_valptrEv,"axG",@progbits,_ZNSt13_Rb_tree_nodeISt4pairIKNSt7__cxx1112basic_stringIcSt11char_traitsIcESaIcEEESt6vectorIfSaIfEEEE9_M_valptrEv,comdat
	.align 2
	.weak	_ZNSt13_Rb_tree_nodeISt4pairIKNSt7__cxx1112basic_stringIcSt11char_traitsIcESaIcEEESt6vectorIfSaIfEEEE9_M_valptrEv
	.type	_ZNSt13_Rb_tree_nodeISt4pairIKNSt7__cxx1112basic_stringIcSt11char_traitsIcESaIcEEESt6vectorIfSaIfEEEE9_M_valptrEv, @function
_ZNSt13_Rb_tree_nodeISt4pairIKNSt7__cxx1112basic_stringIcSt11char_traitsIcESaIcEEESt6vectorIfSaIfEEEE9_M_valptrEv:
.LFB5343:
	.cfi_startproc
	endbr64
	pushq	%rbp
	.cfi_def_cfa_offset 16
	.cfi_offset 6, -16
	movq	%rsp, %rbp
	.cfi_def_cfa_register 6
	subq	$16, %rsp
	movq	%rdi, -8(%rbp)
	movq	-8(%rbp), %rax
	addq	$32, %rax
	movq	%rax, %rdi
	call	_ZN9__gnu_cxx16__aligned_membufISt4pairIKNSt7__cxx1112basic_stringIcSt11char_traitsIcESaIcEEESt6vectorIfSaIfEEEE6_M_ptrEv
	leave
	.cfi_def_cfa 7, 8
	ret
	.cfi_endproc
.LFE5343:
	.size	_ZNSt13_Rb_tree_nodeISt4pairIKNSt7__cxx1112basic_stringIcSt11char_traitsIcESaIcEEESt6vectorIfSaIfEEEE9_M_valptrEv, .-_ZNSt13_Rb_tree_nodeISt4pairIKNSt7__cxx1112basic_stringIcSt11char_traitsIcESaIcEEESt6vectorIfSaIfEEEE9_M_valptrEv
	.section	.text._ZNSt3mapINSt7__cxx1112basic_stringIcSt11char_traitsIcESaIcEEESt6vectorIfSaIfEESt4lessIS5_ESaISt4pairIKS5_S8_EEE11lower_boundERSC_,"axG",@progbits,_ZNSt3mapINSt7__cxx1112basic_stringIcSt11char_traitsIcESaIcEEESt6vectorIfSaIfEESt4lessIS5_ESaISt4pairIKS5_S8_EEE11lower_boundERSC_,comdat
	.align 2
	.weak	_ZNSt3mapINSt7__cxx1112basic_stringIcSt11char_traitsIcESaIcEEESt6vectorIfSaIfEESt4lessIS5_ESaISt4pairIKS5_S8_EEE11lower_boundERSC_
	.type	_ZNSt3mapINSt7__cxx1112basic_stringIcSt11char_traitsIcESaIcEEESt6vectorIfSaIfEESt4lessIS5_ESaISt4pairIKS5_S8_EEE11lower_boundERSC_, @function
_ZNSt3mapINSt7__cxx1112basic_stringIcSt11char_traitsIcESaIcEEESt6vectorIfSaIfEESt4lessIS5_ESaISt4pairIKS5_S8_EEE11lower_boundERSC_:
.LFB5344:
	.cfi_startproc
	endbr64
	pushq	%rbp
	.cfi_def_cfa_offset 16
	.cfi_offset 6, -16
	movq	%rsp, %rbp
	.cfi_def_cfa_register 6
	subq	$16, %rsp
	movq	%rdi, -8(%rbp)
	movq	%rsi, -16(%rbp)
	movq	-8(%rbp), %rax
	movq	-16(%rbp), %rdx
	movq	%rdx, %rsi
	movq	%rax, %rdi
	call	_ZNSt8_Rb_treeINSt7__cxx1112basic_stringIcSt11char_traitsIcESaIcEEESt4pairIKS5_St6vectorIfSaIfEEESt10_Select1stISB_ESt4lessIS5_ESaISB_EE11lower_boundERS7_
	leave
	.cfi_def_cfa 7, 8
	ret
	.cfi_endproc
.LFE5344:
	.size	_ZNSt3mapINSt7__cxx1112basic_stringIcSt11char_traitsIcESaIcEEESt6vectorIfSaIfEESt4lessIS5_ESaISt4pairIKS5_S8_EEE11lower_boundERSC_, .-_ZNSt3mapINSt7__cxx1112basic_stringIcSt11char_traitsIcESaIcEEESt6vectorIfSaIfEESt4lessIS5_ESaISt4pairIKS5_S8_EEE11lower_boundERSC_
	.section	.text._ZSteqRKSt17_Rb_tree_iteratorISt4pairIKNSt7__cxx1112basic_stringIcSt11char_traitsIcESaIcEEESt6vectorIfSaIfEEEESE_,"axG",@progbits,_ZSteqRKSt17_Rb_tree_iteratorISt4pairIKNSt7__cxx1112basic_stringIcSt11char_traitsIcESaIcEEESt6vectorIfSaIfEEEESE_,comdat
	.weak	_ZSteqRKSt17_Rb_tree_iteratorISt4pairIKNSt7__cxx1112basic_stringIcSt11char_traitsIcESaIcEEESt6vectorIfSaIfEEEESE_
	.type	_ZSteqRKSt17_Rb_tree_iteratorISt4pairIKNSt7__cxx1112basic_stringIcSt11char_traitsIcESaIcEEESt6vectorIfSaIfEEEESE_, @function
_ZSteqRKSt17_Rb_tree_iteratorISt4pairIKNSt7__cxx1112basic_stringIcSt11char_traitsIcESaIcEEESt6vectorIfSaIfEEEESE_:
.LFB5345:
	.cfi_startproc
	endbr64
	pushq	%rbp
	.cfi_def_cfa_offset 16
	.cfi_offset 6, -16
	movq	%rsp, %rbp
	.cfi_def_cfa_register 6
	movq	%rdi, -8(%rbp)
	movq	%rsi, -16(%rbp)
	movq	-8(%rbp), %rax
	movq	(%rax), %rdx
	movq	-16(%rbp), %rax
	movq	(%rax), %rax
	cmpq	%rax, %rdx
	sete	%al
	popq	%rbp
	.cfi_def_cfa 7, 8
	ret
	.cfi_endproc
.LFE5345:
	.size	_ZSteqRKSt17_Rb_tree_iteratorISt4pairIKNSt7__cxx1112basic_stringIcSt11char_traitsIcESaIcEEESt6vectorIfSaIfEEEESE_, .-_ZSteqRKSt17_Rb_tree_iteratorISt4pairIKNSt7__cxx1112basic_stringIcSt11char_traitsIcESaIcEEESt6vectorIfSaIfEEEESE_
	.section	.text._ZNKSt3mapINSt7__cxx1112basic_stringIcSt11char_traitsIcESaIcEEESt6vectorIfSaIfEESt4lessIS5_ESaISt4pairIKS5_S8_EEE8key_compEv,"axG",@progbits,_ZNKSt3mapINSt7__cxx1112basic_stringIcSt11char_traitsIcESaIcEEESt6vectorIfSaIfEESt4lessIS5_ESaISt4pairIKS5_S8_EEE8key_compEv,comdat
	.align 2
	.weak	_ZNKSt3mapINSt7__cxx1112basic_stringIcSt11char_traitsIcESaIcEEESt6vectorIfSaIfEESt4lessIS5_ESaISt4pairIKS5_S8_EEE8key_compEv
	.type	_ZNKSt3mapINSt7__cxx1112basic_stringIcSt11char_traitsIcESaIcEEESt6vectorIfSaIfEESt4lessIS5_ESaISt4pairIKS5_S8_EEE8key_compEv, @function
_ZNKSt3mapINSt7__cxx1112basic_stringIcSt11char_traitsIcESaIcEEESt6vectorIfSaIfEESt4lessIS5_ESaISt4pairIKS5_S8_EEE8key_compEv:
.LFB5346:
	.cfi_startproc
	endbr64
	pushq	%rbp
	.cfi_def_cfa_offset 16
	.cfi_offset 6, -16
	movq	%rsp, %rbp
	.cfi_def_cfa_register 6
	pushq	%rbx
	subq	$24, %rsp
	.cfi_offset 3, -24
	movq	%rdi, -24(%rbp)
	movq	-24(%rbp), %rax
	movq	%rax, %rdi
	call	_ZNKSt8_Rb_treeINSt7__cxx1112basic_stringIcSt11char_traitsIcESaIcEEESt4pairIKS5_St6vectorIfSaIfEEESt10_Select1stISB_ESt4lessIS5_ESaISB_EE8key_compEv
	nop
	movl	%ebx, %eax
	movq	-8(%rbp), %rbx
	leave
	.cfi_def_cfa 7, 8
	ret
	.cfi_endproc
.LFE5346:
	.size	_ZNKSt3mapINSt7__cxx1112basic_stringIcSt11char_traitsIcESaIcEEESt6vectorIfSaIfEESt4lessIS5_ESaISt4pairIKS5_S8_EEE8key_compEv, .-_ZNKSt3mapINSt7__cxx1112basic_stringIcSt11char_traitsIcESaIcEEESt6vectorIfSaIfEESt4lessIS5_ESaISt4pairIKS5_S8_EEE8key_compEv
	.section	.text._ZNKSt4lessINSt7__cxx1112basic_stringIcSt11char_traitsIcESaIcEEEEclERKS5_S8_,"axG",@progbits,_ZNKSt4lessINSt7__cxx1112basic_stringIcSt11char_traitsIcESaIcEEEEclERKS5_S8_,comdat
	.align 2
	.weak	_ZNKSt4lessINSt7__cxx1112basic_stringIcSt11char_traitsIcESaIcEEEEclERKS5_S8_
	.type	_ZNKSt4lessINSt7__cxx1112basic_stringIcSt11char_traitsIcESaIcEEEEclERKS5_S8_, @function
_ZNKSt4lessINSt7__cxx1112basic_stringIcSt11char_traitsIcESaIcEEEEclERKS5_S8_:
.LFB5347:
	.cfi_startproc
	endbr64
	pushq	%rbp
	.cfi_def_cfa_offset 16
	.cfi_offset 6, -16
	movq	%rsp, %rbp
	.cfi_def_cfa_register 6
	subq	$32, %rsp
	movq	%rdi, -8(%rbp)
	movq	%rsi, -16(%rbp)
	movq	%rdx, -24(%rbp)
	movq	-24(%rbp), %rdx
	movq	-16(%rbp), %rax
	movq	%rdx, %rsi
	movq	%rax, %rdi
	call	_ZStltIcSt11char_traitsIcESaIcEEbRKNSt7__cxx1112basic_stringIT_T0_T1_EESA_
	leave
	.cfi_def_cfa 7, 8
	ret
	.cfi_endproc
.LFE5347:
	.size	_ZNKSt4lessINSt7__cxx1112basic_stringIcSt11char_traitsIcESaIcEEEEclERKS5_S8_, .-_ZNKSt4lessINSt7__cxx1112basic_stringIcSt11char_traitsIcESaIcEEEEclERKS5_S8_
	.section	.text._ZNSt5tupleIJRKNSt7__cxx1112basic_stringIcSt11char_traitsIcESaIcEEEEEC2ILb1ELb1EEES7_,"axG",@progbits,_ZNSt5tupleIJRKNSt7__cxx1112basic_stringIcSt11char_traitsIcESaIcEEEEEC5ILb1ELb1EEES7_,comdat
	.align 2
	.weak	_ZNSt5tupleIJRKNSt7__cxx1112basic_stringIcSt11char_traitsIcESaIcEEEEEC2ILb1ELb1EEES7_
	.type	_ZNSt5tupleIJRKNSt7__cxx1112basic_stringIcSt11char_traitsIcESaIcEEEEEC2ILb1ELb1EEES7_, @function
_ZNSt5tupleIJRKNSt7__cxx1112basic_stringIcSt11char_traitsIcESaIcEEEEEC2ILb1ELb1EEES7_:
.LFB5349:
	.cfi_startproc
	.cfi_personality 0x9b,DW.ref.__gxx_personality_v0
	.cfi_lsda 0x1b,.LLSDA5349
	endbr64
	pushq	%rbp
	.cfi_def_cfa_offset 16
	.cfi_offset 6, -16
	movq	%rsp, %rbp
	.cfi_def_cfa_register 6
	subq	$16, %rsp
	movq	%rdi, -8(%rbp)
	movq	%rsi, -16(%rbp)
	movq	-8(%rbp), %rax
	movq	-16(%rbp), %rdx
	movq	%rdx, %rsi
	movq	%rax, %rdi
	call	_ZNSt11_Tuple_implILm0EJRKNSt7__cxx1112basic_stringIcSt11char_traitsIcESaIcEEEEEC2ES7_
	nop
	leave
	.cfi_def_cfa 7, 8
	ret
	.cfi_endproc
.LFE5349:
	.section	.gcc_except_table
.LLSDA5349:
	.byte	0xff
	.byte	0xff
	.byte	0x1
	.uleb128 .LLSDACSE5349-.LLSDACSB5349
.LLSDACSB5349:
.LLSDACSE5349:
	.section	.text._ZNSt5tupleIJRKNSt7__cxx1112basic_stringIcSt11char_traitsIcESaIcEEEEEC2ILb1ELb1EEES7_,"axG",@progbits,_ZNSt5tupleIJRKNSt7__cxx1112basic_stringIcSt11char_traitsIcESaIcEEEEEC5ILb1ELb1EEES7_,comdat
	.size	_ZNSt5tupleIJRKNSt7__cxx1112basic_stringIcSt11char_traitsIcESaIcEEEEEC2ILb1ELb1EEES7_, .-_ZNSt5tupleIJRKNSt7__cxx1112basic_stringIcSt11char_traitsIcESaIcEEEEEC2ILb1ELb1EEES7_
	.weak	_ZNSt5tupleIJRKNSt7__cxx1112basic_stringIcSt11char_traitsIcESaIcEEEEEC1ILb1ELb1EEES7_
	.set	_ZNSt5tupleIJRKNSt7__cxx1112basic_stringIcSt11char_traitsIcESaIcEEEEEC1ILb1ELb1EEES7_,_ZNSt5tupleIJRKNSt7__cxx1112basic_stringIcSt11char_traitsIcESaIcEEEEEC2ILb1ELb1EEES7_
	.section	.text._ZNSt23_Rb_tree_const_iteratorISt4pairIKNSt7__cxx1112basic_stringIcSt11char_traitsIcESaIcEEESt6vectorIfSaIfEEEEC2ERKSt17_Rb_tree_iteratorISB_E,"axG",@progbits,_ZNSt23_Rb_tree_const_iteratorISt4pairIKNSt7__cxx1112basic_stringIcSt11char_traitsIcESaIcEEESt6vectorIfSaIfEEEEC5ERKSt17_Rb_tree_iteratorISB_E,comdat
	.align 2
	.weak	_ZNSt23_Rb_tree_const_iteratorISt4pairIKNSt7__cxx1112basic_stringIcSt11char_traitsIcESaIcEEESt6vectorIfSaIfEEEEC2ERKSt17_Rb_tree_iteratorISB_E
	.type	_ZNSt23_Rb_tree_const_iteratorISt4pairIKNSt7__cxx1112basic_stringIcSt11char_traitsIcESaIcEEESt6vectorIfSaIfEEEEC2ERKSt17_Rb_tree_iteratorISB_E, @function
_ZNSt23_Rb_tree_const_iteratorISt4pairIKNSt7__cxx1112basic_stringIcSt11char_traitsIcESaIcEEESt6vectorIfSaIfEEEEC2ERKSt17_Rb_tree_iteratorISB_E:
.LFB5352:
	.cfi_startproc
	endbr64
	pushq	%rbp
	.cfi_def_cfa_offset 16
	.cfi_offset 6, -16
	movq	%rsp, %rbp
	.cfi_def_cfa_register 6
	movq	%rdi, -8(%rbp)
	movq	%rsi, -16(%rbp)
	movq	-16(%rbp), %rax
	movq	(%rax), %rdx
	movq	-8(%rbp), %rax
	movq	%rdx, (%rax)
	nop
	popq	%rbp
	.cfi_def_cfa 7, 8
	ret
	.cfi_endproc
.LFE5352:
	.size	_ZNSt23_Rb_tree_const_iteratorISt4pairIKNSt7__cxx1112basic_stringIcSt11char_traitsIcESaIcEEESt6vectorIfSaIfEEEEC2ERKSt17_Rb_tree_iteratorISB_E, .-_ZNSt23_Rb_tree_const_iteratorISt4pairIKNSt7__cxx1112basic_stringIcSt11char_traitsIcESaIcEEESt6vectorIfSaIfEEEEC2ERKSt17_Rb_tree_iteratorISB_E
	.weak	_ZNSt23_Rb_tree_const_iteratorISt4pairIKNSt7__cxx1112basic_stringIcSt11char_traitsIcESaIcEEESt6vectorIfSaIfEEEEC1ERKSt17_Rb_tree_iteratorISB_E
	.set	_ZNSt23_Rb_tree_const_iteratorISt4pairIKNSt7__cxx1112basic_stringIcSt11char_traitsIcESaIcEEESt6vectorIfSaIfEEEEC1ERKSt17_Rb_tree_iteratorISB_E,_ZNSt23_Rb_tree_const_iteratorISt4pairIKNSt7__cxx1112basic_stringIcSt11char_traitsIcESaIcEEESt6vectorIfSaIfEEEEC2ERKSt17_Rb_tree_iteratorISB_E
	.section	.text._ZNSt8_Rb_treeINSt7__cxx1112basic_stringIcSt11char_traitsIcESaIcEEESt4pairIKS5_St6vectorIfSaIfEEESt10_Select1stISB_ESt4lessIS5_ESaISB_EE22_M_emplace_hint_uniqueIJRKSt21piecewise_construct_tSt5tupleIJRS7_EESM_IJEEEEESt17_Rb_tree_iteratorISB_ESt23_Rb_tree_const_iteratorISB_EDpOT_,"axG",@progbits,_ZNSt8_Rb_treeINSt7__cxx1112basic_stringIcSt11char_traitsIcESaIcEEESt4pairIKS5_St6vectorIfSaIfEEESt10_Select1stISB_ESt4lessIS5_ESaISB_EE22_M_emplace_hint_uniqueIJRKSt21piecewise_construct_tSt5tupleIJRS7_EESM_IJEEEEESt17_Rb_tree_iteratorISB_ESt23_Rb_tree_const_iteratorISB_EDpOT_,comdat
	.align 2
	.weak	_ZNSt8_Rb_treeINSt7__cxx1112basic_stringIcSt11char_traitsIcESaIcEEESt4pairIKS5_St6vectorIfSaIfEEESt10_Select1stISB_ESt4lessIS5_ESaISB_EE22_M_emplace_hint_uniqueIJRKSt21piecewise_construct_tSt5tupleIJRS7_EESM_IJEEEEESt17_Rb_tree_iteratorISB_ESt23_Rb_tree_const_iteratorISB_EDpOT_
	.type	_ZNSt8_Rb_treeINSt7__cxx1112basic_stringIcSt11char_traitsIcESaIcEEESt4pairIKS5_St6vectorIfSaIfEEESt10_Select1stISB_ESt4lessIS5_ESaISB_EE22_M_emplace_hint_uniqueIJRKSt21piecewise_construct_tSt5tupleIJRS7_EESM_IJEEEEESt17_Rb_tree_iteratorISB_ESt23_Rb_tree_const_iteratorISB_EDpOT_, @function
_ZNSt8_Rb_treeINSt7__cxx1112basic_stringIcSt11char_traitsIcESaIcEEESt4pairIKS5_St6vectorIfSaIfEEESt10_Select1stISB_ESt4lessIS5_ESaISB_EE22_M_emplace_hint_uniqueIJRKSt21piecewise_construct_tSt5tupleIJRS7_EESM_IJEEEEESt17_Rb_tree_iteratorISB_ESt23_Rb_tree_const_iteratorISB_EDpOT_:
.LFB5354:
	.cfi_startproc
	.cfi_personality 0x9b,DW.ref.__gxx_personality_v0
	.cfi_lsda 0x1b,.LLSDA5354
	endbr64
	pushq	%rbp
	.cfi_def_cfa_offset 16
	.cfi_offset 6, -16
	movq	%rsp, %rbp
	.cfi_def_cfa_register 6
	pushq	%r12
	pushq	%rbx
	subq	$96, %rsp
	.cfi_offset 12, -24
	.cfi_offset 3, -32
	movq	%rdi, -72(%rbp)
	movq	%rsi, -80(%rbp)
	movq	%rdx, -88(%rbp)
	movq	%rcx, -96(%rbp)
	movq	%r8, -104(%rbp)
	movq	%fs:40, %rax
	movq	%rax, -24(%rbp)
	xorl	%eax, %eax
	movq	-104(%rbp), %rax
	movq	%rax, %rdi
	call	_ZSt7forwardISt5tupleIJEEEOT_RNSt16remove_referenceIS2_E4typeE
	movq	%rax, %r12
	movq	-96(%rbp), %rax
	movq	%rax, %rdi
	call	_ZSt7forwardISt5tupleIJRKNSt7__cxx1112basic_stringIcSt11char_traitsIcESaIcEEEEEEOT_RNSt16remove_referenceISA_E4typeE
	movq	%rax, %rbx
	movq	-88(%rbp), %rax
	movq	%rax, %rdi
	call	_ZSt7forwardIRKSt21piecewise_construct_tEOT_RNSt16remove_referenceIS3_E4typeE
	movq	%rax, %rsi
	movq	-72(%rbp), %rax
	movq	%r12, %rcx
	movq	%rbx, %rdx
	movq	%rax, %rdi
.LEHB27:
	call	_ZNSt8_Rb_treeINSt7__cxx1112basic_stringIcSt11char_traitsIcESaIcEEESt4pairIKS5_St6vectorIfSaIfEEESt10_Select1stISB_ESt4lessIS5_ESaISB_EE14_M_create_nodeIJRKSt21piecewise_construct_tSt5tupleIJRS7_EESM_IJEEEEEPSt13_Rb_tree_nodeISB_EDpOT_
.LEHE27:
	movq	%rax, -56(%rbp)
	movq	-56(%rbp), %rax
	movq	%rax, %rdi
.LEHB28:
	call	_ZNSt8_Rb_treeINSt7__cxx1112basic_stringIcSt11char_traitsIcESaIcEEESt4pairIKS5_St6vectorIfSaIfEEESt10_Select1stISB_ESt4lessIS5_ESaISB_EE6_S_keyEPKSt13_Rb_tree_nodeISB_E
	movq	%rax, %rdx
	movq	-80(%rbp), %rcx
	movq	-72(%rbp), %rax
	movq	%rcx, %rsi
	movq	%rax, %rdi
	call	_ZNSt8_Rb_treeINSt7__cxx1112basic_stringIcSt11char_traitsIcESaIcEEESt4pairIKS5_St6vectorIfSaIfEEESt10_Select1stISB_ESt4lessIS5_ESaISB_EE29_M_get_insert_hint_unique_posESt23_Rb_tree_const_iteratorISB_ERS7_
	movq	%rax, -48(%rbp)
	movq	%rdx, -40(%rbp)
	movq	-40(%rbp), %rax
	testq	%rax, %rax
	je	.L251
	movq	-40(%rbp), %rdx
	movq	-48(%rbp), %rsi
	movq	-56(%rbp), %rcx
	movq	-72(%rbp), %rax
	movq	%rax, %rdi
	call	_ZNSt8_Rb_treeINSt7__cxx1112basic_stringIcSt11char_traitsIcESaIcEEESt4pairIKS5_St6vectorIfSaIfEEESt10_Select1stISB_ESt4lessIS5_ESaISB_EE14_M_insert_nodeEPSt18_Rb_tree_node_baseSJ_PSt13_Rb_tree_nodeISB_E
.LEHE28:
	jmp	.L253
.L251:
	movq	-56(%rbp), %rdx
	movq	-72(%rbp), %rax
	movq	%rdx, %rsi
	movq	%rax, %rdi
	call	_ZNSt8_Rb_treeINSt7__cxx1112basic_stringIcSt11char_traitsIcESaIcEEESt4pairIKS5_St6vectorIfSaIfEEESt10_Select1stISB_ESt4lessIS5_ESaISB_EE12_M_drop_nodeEPSt13_Rb_tree_nodeISB_E
	movq	-48(%rbp), %rdx
	leaq	-64(%rbp), %rax
	movq	%rdx, %rsi
	movq	%rax, %rdi
	call	_ZNSt17_Rb_tree_iteratorISt4pairIKNSt7__cxx1112basic_stringIcSt11char_traitsIcESaIcEEESt6vectorIfSaIfEEEEC1EPSt18_Rb_tree_node_base
	movq	-64(%rbp), %rax
.L253:
	movq	-24(%rbp), %rdx
	subq	%fs:40, %rdx
	je	.L256
	jmp	.L259
.L257:
	endbr64
	movq	%rax, %rdi
	call	__cxa_begin_catch@PLT
	movq	-56(%rbp), %rdx
	movq	-72(%rbp), %rax
	movq	%rdx, %rsi
	movq	%rax, %rdi
	call	_ZNSt8_Rb_treeINSt7__cxx1112basic_stringIcSt11char_traitsIcESaIcEEESt4pairIKS5_St6vectorIfSaIfEEESt10_Select1stISB_ESt4lessIS5_ESaISB_EE12_M_drop_nodeEPSt13_Rb_tree_nodeISB_E
.LEHB29:
	call	__cxa_rethrow@PLT
.LEHE29:
.L258:
	endbr64
	movq	%rax, %rbx
	call	__cxa_end_catch@PLT
	movq	%rbx, %rax
	movq	%rax, %rdi
.LEHB30:
	call	_Unwind_Resume@PLT
.LEHE30:
.L259:
	call	__stack_chk_fail@PLT
.L256:
	addq	$96, %rsp
	popq	%rbx
	popq	%r12
	popq	%rbp
	.cfi_def_cfa 7, 8
	ret
	.cfi_endproc
.LFE5354:
	.section	.gcc_except_table
	.align 4
.LLSDA5354:
	.byte	0xff
	.byte	0x9b
	.uleb128 .LLSDATT5354-.LLSDATTD5354
.LLSDATTD5354:
	.byte	0x1
	.uleb128 .LLSDACSE5354-.LLSDACSB5354
.LLSDACSB5354:
	.uleb128 .LEHB27-.LFB5354
	.uleb128 .LEHE27-.LEHB27
	.uleb128 0
	.uleb128 0
	.uleb128 .LEHB28-.LFB5354
	.uleb128 .LEHE28-.LEHB28
	.uleb128 .L257-.LFB5354
	.uleb128 0x1
	.uleb128 .LEHB29-.LFB5354
	.uleb128 .LEHE29-.LEHB29
	.uleb128 .L258-.LFB5354
	.uleb128 0
	.uleb128 .LEHB30-.LFB5354
	.uleb128 .LEHE30-.LEHB30
	.uleb128 0
	.uleb128 0
.LLSDACSE5354:
	.byte	0x1
	.byte	0
	.align 4
	.long	0

.LLSDATT5354:
	.section	.text._ZNSt8_Rb_treeINSt7__cxx1112basic_stringIcSt11char_traitsIcESaIcEEESt4pairIKS5_St6vectorIfSaIfEEESt10_Select1stISB_ESt4lessIS5_ESaISB_EE22_M_emplace_hint_uniqueIJRKSt21piecewise_construct_tSt5tupleIJRS7_EESM_IJEEEEESt17_Rb_tree_iteratorISB_ESt23_Rb_tree_const_iteratorISB_EDpOT_,"axG",@progbits,_ZNSt8_Rb_treeINSt7__cxx1112basic_stringIcSt11char_traitsIcESaIcEEESt4pairIKS5_St6vectorIfSaIfEEESt10_Select1stISB_ESt4lessIS5_ESaISB_EE22_M_emplace_hint_uniqueIJRKSt21piecewise_construct_tSt5tupleIJRS7_EESM_IJEEEEESt17_Rb_tree_iteratorISB_ESt23_Rb_tree_const_iteratorISB_EDpOT_,comdat
	.size	_ZNSt8_Rb_treeINSt7__cxx1112basic_stringIcSt11char_traitsIcESaIcEEESt4pairIKS5_St6vectorIfSaIfEEESt10_Select1stISB_ESt4lessIS5_ESaISB_EE22_M_emplace_hint_uniqueIJRKSt21piecewise_construct_tSt5tupleIJRS7_EESM_IJEEEEESt17_Rb_tree_iteratorISB_ESt23_Rb_tree_const_iteratorISB_EDpOT_, .-_ZNSt8_Rb_treeINSt7__cxx1112basic_stringIcSt11char_traitsIcESaIcEEESt4pairIKS5_St6vectorIfSaIfEEESt10_Select1stISB_ESt4lessIS5_ESaISB_EE22_M_emplace_hint_uniqueIJRKSt21piecewise_construct_tSt5tupleIJRS7_EESM_IJEEEEESt17_Rb_tree_iteratorISB_ESt23_Rb_tree_const_iteratorISB_EDpOT_
	.section	.text._ZN9__gnu_cxx13new_allocatorIfEC2Ev,"axG",@progbits,_ZN9__gnu_cxx13new_allocatorIfEC5Ev,comdat
	.align 2
	.weak	_ZN9__gnu_cxx13new_allocatorIfEC2Ev
	.type	_ZN9__gnu_cxx13new_allocatorIfEC2Ev, @function
_ZN9__gnu_cxx13new_allocatorIfEC2Ev:
.LFB5356:
	.cfi_startproc
	endbr64
	pushq	%rbp
	.cfi_def_cfa_offset 16
	.cfi_offset 6, -16
	movq	%rsp, %rbp
	.cfi_def_cfa_register 6
	movq	%rdi, -8(%rbp)
	nop
	popq	%rbp
	.cfi_def_cfa 7, 8
	ret
	.cfi_endproc
.LFE5356:
	.size	_ZN9__gnu_cxx13new_allocatorIfEC2Ev, .-_ZN9__gnu_cxx13new_allocatorIfEC2Ev
	.weak	_ZN9__gnu_cxx13new_allocatorIfEC1Ev
	.set	_ZN9__gnu_cxx13new_allocatorIfEC1Ev,_ZN9__gnu_cxx13new_allocatorIfEC2Ev
	.section	.text._ZN9__gnu_cxx13new_allocatorIfED2Ev,"axG",@progbits,_ZN9__gnu_cxx13new_allocatorIfED5Ev,comdat
	.align 2
	.weak	_ZN9__gnu_cxx13new_allocatorIfED2Ev
	.type	_ZN9__gnu_cxx13new_allocatorIfED2Ev, @function
_ZN9__gnu_cxx13new_allocatorIfED2Ev:
.LFB5359:
	.cfi_startproc
	endbr64
	pushq	%rbp
	.cfi_def_cfa_offset 16
	.cfi_offset 6, -16
	movq	%rsp, %rbp
	.cfi_def_cfa_register 6
	movq	%rdi, -8(%rbp)
	nop
	popq	%rbp
	.cfi_def_cfa 7, 8
	ret
	.cfi_endproc
.LFE5359:
	.size	_ZN9__gnu_cxx13new_allocatorIfED2Ev, .-_ZN9__gnu_cxx13new_allocatorIfED2Ev
	.weak	_ZN9__gnu_cxx13new_allocatorIfED1Ev
	.set	_ZN9__gnu_cxx13new_allocatorIfED1Ev,_ZN9__gnu_cxx13new_allocatorIfED2Ev
	.section	.text._ZNSt12_Vector_baseIfSaIfEE12_Vector_implD2Ev,"axG",@progbits,_ZNSt12_Vector_baseIfSaIfEE12_Vector_implD5Ev,comdat
	.align 2
	.weak	_ZNSt12_Vector_baseIfSaIfEE12_Vector_implD2Ev
	.type	_ZNSt12_Vector_baseIfSaIfEE12_Vector_implD2Ev, @function
_ZNSt12_Vector_baseIfSaIfEE12_Vector_implD2Ev:
.LFB5363:
	.cfi_startproc
	endbr64
	pushq	%rbp
	.cfi_def_cfa_offset 16
	.cfi_offset 6, -16
	movq	%rsp, %rbp
	.cfi_def_cfa_register 6
	subq	$16, %rsp
	movq	%rdi, -8(%rbp)
	movq	-8(%rbp), %rax
	movq	%rax, %rdi
	call	_ZNSaIfED2Ev
	nop
	leave
	.cfi_def_cfa 7, 8
	ret
	.cfi_endproc
.LFE5363:
	.size	_ZNSt12_Vector_baseIfSaIfEE12_Vector_implD2Ev, .-_ZNSt12_Vector_baseIfSaIfEE12_Vector_implD2Ev
	.weak	_ZNSt12_Vector_baseIfSaIfEE12_Vector_implD1Ev
	.set	_ZNSt12_Vector_baseIfSaIfEE12_Vector_implD1Ev,_ZNSt12_Vector_baseIfSaIfEE12_Vector_implD2Ev
	.section	.text._ZNSt12_Vector_baseIfSaIfEEC2ERKS0_,"axG",@progbits,_ZNSt12_Vector_baseIfSaIfEEC5ERKS0_,comdat
	.align 2
	.weak	_ZNSt12_Vector_baseIfSaIfEEC2ERKS0_
	.type	_ZNSt12_Vector_baseIfSaIfEEC2ERKS0_, @function
_ZNSt12_Vector_baseIfSaIfEEC2ERKS0_:
.LFB5365:
	.cfi_startproc
	endbr64
	pushq	%rbp
	.cfi_def_cfa_offset 16
	.cfi_offset 6, -16
	movq	%rsp, %rbp
	.cfi_def_cfa_register 6
	subq	$16, %rsp
	movq	%rdi, -8(%rbp)
	movq	%rsi, -16(%rbp)
	movq	-8(%rbp), %rax
	movq	-16(%rbp), %rdx
	movq	%rdx, %rsi
	movq	%rax, %rdi
	call	_ZNSt12_Vector_baseIfSaIfEE12_Vector_implC1ERKS0_
	nop
	leave
	.cfi_def_cfa 7, 8
	ret
	.cfi_endproc
.LFE5365:
	.size	_ZNSt12_Vector_baseIfSaIfEEC2ERKS0_, .-_ZNSt12_Vector_baseIfSaIfEEC2ERKS0_
	.weak	_ZNSt12_Vector_baseIfSaIfEEC1ERKS0_
	.set	_ZNSt12_Vector_baseIfSaIfEEC1ERKS0_,_ZNSt12_Vector_baseIfSaIfEEC2ERKS0_
	.section	.text._ZNSt12_Vector_baseIfSaIfEED2Ev,"axG",@progbits,_ZNSt12_Vector_baseIfSaIfEED5Ev,comdat
	.align 2
	.weak	_ZNSt12_Vector_baseIfSaIfEED2Ev
	.type	_ZNSt12_Vector_baseIfSaIfEED2Ev, @function
_ZNSt12_Vector_baseIfSaIfEED2Ev:
.LFB5368:
	.cfi_startproc
	.cfi_personality 0x9b,DW.ref.__gxx_personality_v0
	.cfi_lsda 0x1b,.LLSDA5368
	endbr64
	pushq	%rbp
	.cfi_def_cfa_offset 16
	.cfi_offset 6, -16
	movq	%rsp, %rbp
	.cfi_def_cfa_register 6
	subq	$16, %rsp
	movq	%rdi, -8(%rbp)
	movq	-8(%rbp), %rax
	movq	16(%rax), %rdx
	movq	-8(%rbp), %rax
	movq	(%rax), %rcx
	movq	%rdx, %rax
	subq	%rcx, %rax
	sarq	$2, %rax
	movq	%rax, %rdx
	movq	-8(%rbp), %rax
	movq	(%rax), %rcx
	movq	-8(%rbp), %rax
	movq	%rcx, %rsi
	movq	%rax, %rdi
	call	_ZNSt12_Vector_baseIfSaIfEE13_M_deallocateEPfm
	movq	-8(%rbp), %rax
	movq	%rax, %rdi
	call	_ZNSt12_Vector_baseIfSaIfEE12_Vector_implD1Ev
	nop
	leave
	.cfi_def_cfa 7, 8
	ret
	.cfi_endproc
.LFE5368:
	.section	.gcc_except_table
.LLSDA5368:
	.byte	0xff
	.byte	0xff
	.byte	0x1
	.uleb128 .LLSDACSE5368-.LLSDACSB5368
.LLSDACSB5368:
.LLSDACSE5368:
	.section	.text._ZNSt12_Vector_baseIfSaIfEED2Ev,"axG",@progbits,_ZNSt12_Vector_baseIfSaIfEED5Ev,comdat
	.size	_ZNSt12_Vector_baseIfSaIfEED2Ev, .-_ZNSt12_Vector_baseIfSaIfEED2Ev
	.weak	_ZNSt12_Vector_baseIfSaIfEED1Ev
	.set	_ZNSt12_Vector_baseIfSaIfEED1Ev,_ZNSt12_Vector_baseIfSaIfEED2Ev
	.section	.text._ZNKSt16initializer_listIfE5beginEv,"axG",@progbits,_ZNKSt16initializer_listIfE5beginEv,comdat
	.align 2
	.weak	_ZNKSt16initializer_listIfE5beginEv
	.type	_ZNKSt16initializer_listIfE5beginEv, @function
_ZNKSt16initializer_listIfE5beginEv:
.LFB5370:
	.cfi_startproc
	endbr64
	pushq	%rbp
	.cfi_def_cfa_offset 16
	.cfi_offset 6, -16
	movq	%rsp, %rbp
	.cfi_def_cfa_register 6
	movq	%rdi, -8(%rbp)
	movq	-8(%rbp), %rax
	movq	(%rax), %rax
	popq	%rbp
	.cfi_def_cfa 7, 8
	ret
	.cfi_endproc
.LFE5370:
	.size	_ZNKSt16initializer_listIfE5beginEv, .-_ZNKSt16initializer_listIfE5beginEv
	.section	.text._ZNKSt16initializer_listIfE3endEv,"axG",@progbits,_ZNKSt16initializer_listIfE3endEv,comdat
	.align 2
	.weak	_ZNKSt16initializer_listIfE3endEv
	.type	_ZNKSt16initializer_listIfE3endEv, @function
_ZNKSt16initializer_listIfE3endEv:
.LFB5371:
	.cfi_startproc
	endbr64
	pushq	%rbp
	.cfi_def_cfa_offset 16
	.cfi_offset 6, -16
	movq	%rsp, %rbp
	.cfi_def_cfa_register 6
	pushq	%rbx
	subq	$24, %rsp
	.cfi_offset 3, -24
	movq	%rdi, -24(%rbp)
	movq	-24(%rbp), %rax
	movq	%rax, %rdi
	call	_ZNKSt16initializer_listIfE5beginEv
	movq	%rax, %rbx
	movq	-24(%rbp), %rax
	movq	%rax, %rdi
	call	_ZNKSt16initializer_listIfE4sizeEv
	salq	$2, %rax
	addq	%rbx, %rax
	movq	-8(%rbp), %rbx
	leave
	.cfi_def_cfa 7, 8
	ret
	.cfi_endproc
.LFE5371:
	.size	_ZNKSt16initializer_listIfE3endEv, .-_ZNKSt16initializer_listIfE3endEv
	.section	.text._ZSt8distanceIPKfENSt15iterator_traitsIT_E15difference_typeES3_S3_,"axG",@progbits,_ZSt8distanceIPKfENSt15iterator_traitsIT_E15difference_typeES3_S3_,comdat
	.weak	_ZSt8distanceIPKfENSt15iterator_traitsIT_E15difference_typeES3_S3_
	.type	_ZSt8distanceIPKfENSt15iterator_traitsIT_E15difference_typeES3_S3_, @function
_ZSt8distanceIPKfENSt15iterator_traitsIT_E15difference_typeES3_S3_:
.LFB5373:
	.cfi_startproc
	endbr64
	pushq	%rbp
	.cfi_def_cfa_offset 16
	.cfi_offset 6, -16
	movq	%rsp, %rbp
	.cfi_def_cfa_register 6
	subq	$16, %rsp
	movq	%rdi, -8(%rbp)
	movq	%rsi, -16(%rbp)
	leaq	-8(%rbp), %rax
	movq	%rax, %rdi
	call	_ZSt19__iterator_categoryIPKfENSt15iterator_traitsIT_E17iterator_categoryERKS3_
	movq	-8(%rbp), %rax
	movq	-16(%rbp), %rdx
	movq	%rdx, %rsi
	movq	%rax, %rdi
	call	_ZSt10__distanceIPKfENSt15iterator_traitsIT_E15difference_typeES3_S3_St26random_access_iterator_tag
	leave
	.cfi_def_cfa 7, 8
	ret
	.cfi_endproc
.LFE5373:
	.size	_ZSt8distanceIPKfENSt15iterator_traitsIT_E15difference_typeES3_S3_, .-_ZSt8distanceIPKfENSt15iterator_traitsIT_E15difference_typeES3_S3_
	.section	.text._ZNSt6vectorIfSaIfEE19_M_range_initializeIPKfEEvT_S5_St20forward_iterator_tag,"axG",@progbits,_ZNSt6vectorIfSaIfEE19_M_range_initializeIPKfEEvT_S5_St20forward_iterator_tag,comdat
	.align 2
	.weak	_ZNSt6vectorIfSaIfEE19_M_range_initializeIPKfEEvT_S5_St20forward_iterator_tag
	.type	_ZNSt6vectorIfSaIfEE19_M_range_initializeIPKfEEvT_S5_St20forward_iterator_tag, @function
_ZNSt6vectorIfSaIfEE19_M_range_initializeIPKfEEvT_S5_St20forward_iterator_tag:
.LFB5372:
	.cfi_startproc
	endbr64
	pushq	%rbp
	.cfi_def_cfa_offset 16
	.cfi_offset 6, -16
	movq	%rsp, %rbp
	.cfi_def_cfa_register 6
	pushq	%rbx
	subq	$56, %rsp
	.cfi_offset 3, -24
	movq	%rdi, -40(%rbp)
	movq	%rsi, -48(%rbp)
	movq	%rdx, -56(%rbp)
	movq	-56(%rbp), %rdx
	movq	-48(%rbp), %rax
	movq	%rdx, %rsi
	movq	%rax, %rdi
	call	_ZSt8distanceIPKfENSt15iterator_traitsIT_E15difference_typeES3_S3_
	movq	%rax, -24(%rbp)
	movq	-40(%rbp), %rbx
	movq	-40(%rbp), %rax
	movq	%rax, %rdi
	call	_ZNSt12_Vector_baseIfSaIfEE19_M_get_Tp_allocatorEv
	movq	%rax, %rdx
	movq	-24(%rbp), %rax
	movq	%rdx, %rsi
	movq	%rax, %rdi
	call	_ZNSt6vectorIfSaIfEE17_S_check_init_lenEmRKS0_
	movq	%rax, %rsi
	movq	%rbx, %rdi
	call	_ZNSt12_Vector_baseIfSaIfEE11_M_allocateEm
	movq	-40(%rbp), %rdx
	movq	%rax, (%rdx)
	movq	-40(%rbp), %rax
	movq	(%rax), %rdx
	movq	-24(%rbp), %rax
	salq	$2, %rax
	addq	%rax, %rdx
	movq	-40(%rbp), %rax
	movq	%rdx, 16(%rax)
	movq	-40(%rbp), %rax
	movq	%rax, %rdi
	call	_ZNSt12_Vector_baseIfSaIfEE19_M_get_Tp_allocatorEv
	movq	%rax, %rcx
	movq	-40(%rbp), %rax
	movq	(%rax), %rdx
	movq	-56(%rbp), %rsi
	movq	-48(%rbp), %rax
	movq	%rax, %rdi
	call	_ZSt22__uninitialized_copy_aIPKfPffET0_T_S4_S3_RSaIT1_E
	movq	-40(%rbp), %rdx
	movq	%rax, 8(%rdx)
	nop
	movq	-8(%rbp), %rbx
	leave
	.cfi_def_cfa 7, 8
	ret
	.cfi_endproc
.LFE5372:
	.size	_ZNSt6vectorIfSaIfEE19_M_range_initializeIPKfEEvT_S5_St20forward_iterator_tag, .-_ZNSt6vectorIfSaIfEE19_M_range_initializeIPKfEEvT_S5_St20forward_iterator_tag
	.section	.text._ZNSt12_Vector_baseIfSaIfEE19_M_get_Tp_allocatorEv,"axG",@progbits,_ZNSt12_Vector_baseIfSaIfEE19_M_get_Tp_allocatorEv,comdat
	.align 2
	.weak	_ZNSt12_Vector_baseIfSaIfEE19_M_get_Tp_allocatorEv
	.type	_ZNSt12_Vector_baseIfSaIfEE19_M_get_Tp_allocatorEv, @function
_ZNSt12_Vector_baseIfSaIfEE19_M_get_Tp_allocatorEv:
.LFB5374:
	.cfi_startproc
	endbr64
	pushq	%rbp
	.cfi_def_cfa_offset 16
	.cfi_offset 6, -16
	movq	%rsp, %rbp
	.cfi_def_cfa_register 6
	movq	%rdi, -8(%rbp)
	movq	-8(%rbp), %rax
	popq	%rbp
	.cfi_def_cfa 7, 8
	ret
	.cfi_endproc
.LFE5374:
	.size	_ZNSt12_Vector_baseIfSaIfEE19_M_get_Tp_allocatorEv, .-_ZNSt12_Vector_baseIfSaIfEE19_M_get_Tp_allocatorEv
	.section	.text._ZSt8_DestroyIPffEvT_S1_RSaIT0_E,"axG",@progbits,_ZSt8_DestroyIPffEvT_S1_RSaIT0_E,comdat
	.weak	_ZSt8_DestroyIPffEvT_S1_RSaIT0_E
	.type	_ZSt8_DestroyIPffEvT_S1_RSaIT0_E, @function
_ZSt8_DestroyIPffEvT_S1_RSaIT0_E:
.LFB5375:
	.cfi_startproc
	endbr64
	pushq	%rbp
	.cfi_def_cfa_offset 16
	.cfi_offset 6, -16
	movq	%rsp, %rbp
	.cfi_def_cfa_register 6
	subq	$32, %rsp
	movq	%rdi, -8(%rbp)
	movq	%rsi, -16(%rbp)
	movq	%rdx, -24(%rbp)
	movq	-16(%rbp), %rdx
	movq	-8(%rbp), %rax
	movq	%rdx, %rsi
	movq	%rax, %rdi
	call	_ZSt8_DestroyIPfEvT_S1_
	nop
	leave
	.cfi_def_cfa 7, 8
	ret
	.cfi_endproc
.LFE5375:
	.size	_ZSt8_DestroyIPffEvT_S1_RSaIT0_E, .-_ZSt8_DestroyIPffEvT_S1_RSaIT0_E
	.section	.text._ZSt4moveIRSt6vectorIfSaIfEEEONSt16remove_referenceIT_E4typeEOS5_,"axG",@progbits,_ZSt4moveIRSt6vectorIfSaIfEEEONSt16remove_referenceIT_E4typeEOS5_,comdat
	.weak	_ZSt4moveIRSt6vectorIfSaIfEEEONSt16remove_referenceIT_E4typeEOS5_
	.type	_ZSt4moveIRSt6vectorIfSaIfEEEONSt16remove_referenceIT_E4typeEOS5_, @function
_ZSt4moveIRSt6vectorIfSaIfEEEONSt16remove_referenceIT_E4typeEOS5_:
.LFB5376:
	.cfi_startproc
	endbr64
	pushq	%rbp
	.cfi_def_cfa_offset 16
	.cfi_offset 6, -16
	movq	%rsp, %rbp
	.cfi_def_cfa_register 6
	movq	%rdi, -8(%rbp)
	movq	-8(%rbp), %rax
	popq	%rbp
	.cfi_def_cfa 7, 8
	ret
	.cfi_endproc
.LFE5376:
	.size	_ZSt4moveIRSt6vectorIfSaIfEEEONSt16remove_referenceIT_E4typeEOS5_, .-_ZSt4moveIRSt6vectorIfSaIfEEEONSt16remove_referenceIT_E4typeEOS5_
	.section	.text._ZNSt6vectorIfSaIfEE14_M_move_assignEOS1_St17integral_constantIbLb1EE,"axG",@progbits,_ZNSt6vectorIfSaIfEE14_M_move_assignEOS1_St17integral_constantIbLb1EE,comdat
	.align 2
	.weak	_ZNSt6vectorIfSaIfEE14_M_move_assignEOS1_St17integral_constantIbLb1EE
	.type	_ZNSt6vectorIfSaIfEE14_M_move_assignEOS1_St17integral_constantIbLb1EE, @function
_ZNSt6vectorIfSaIfEE14_M_move_assignEOS1_St17integral_constantIbLb1EE:
.LFB5377:
	.cfi_startproc
	endbr64
	pushq	%rbp
	.cfi_def_cfa_offset 16
	.cfi_offset 6, -16
	movq	%rsp, %rbp
	.cfi_def_cfa_register 6
	pushq	%rbx
	subq	$72, %rsp
	.cfi_offset 3, -24
	movq	%rdi, -72(%rbp)
	movq	%rsi, -80(%rbp)
	movq	%fs:40, %rax
	movq	%rax, -24(%rbp)
	xorl	%eax, %eax
	movq	-72(%rbp), %rdx
	leaq	-49(%rbp), %rax
	movq	%rdx, %rsi
	movq	%rax, %rdi
	call	_ZNKSt12_Vector_baseIfSaIfEE13get_allocatorEv
	leaq	-49(%rbp), %rdx
	leaq	-48(%rbp), %rax
	movq	%rdx, %rsi
	movq	%rax, %rdi
	call	_ZNSt6vectorIfSaIfEEC1ERKS0_
	leaq	-49(%rbp), %rax
	movq	%rax, %rdi
	call	_ZNSaIfED1Ev
	movq	-72(%rbp), %rax
	movq	-80(%rbp), %rdx
	movq	%rdx, %rsi
	movq	%rax, %rdi
	call	_ZNSt12_Vector_baseIfSaIfEE17_Vector_impl_data12_M_swap_dataERS2_
	movq	-80(%rbp), %rdx
	leaq	-48(%rbp), %rax
	movq	%rdx, %rsi
	movq	%rax, %rdi
	call	_ZNSt12_Vector_baseIfSaIfEE17_Vector_impl_data12_M_swap_dataERS2_
	movq	-80(%rbp), %rax
	movq	%rax, %rdi
	call	_ZNSt12_Vector_baseIfSaIfEE19_M_get_Tp_allocatorEv
	movq	%rax, %rbx
	movq	-72(%rbp), %rax
	movq	%rax, %rdi
	call	_ZNSt12_Vector_baseIfSaIfEE19_M_get_Tp_allocatorEv
	movq	%rbx, %rsi
	movq	%rax, %rdi
	call	_ZSt15__alloc_on_moveISaIfEEvRT_S2_
	leaq	-48(%rbp), %rax
	movq	%rax, %rdi
	call	_ZNSt6vectorIfSaIfEED1Ev
	movq	-24(%rbp), %rax
	subq	%fs:40, %rax
	je	.L278
	call	__stack_chk_fail@PLT
.L278:
	movq	-8(%rbp), %rbx
	leave
	.cfi_def_cfa 7, 8
	ret
	.cfi_endproc
.LFE5377:
	.size	_ZNSt6vectorIfSaIfEE14_M_move_assignEOS1_St17integral_constantIbLb1EE, .-_ZNSt6vectorIfSaIfEE14_M_move_assignEOS1_St17integral_constantIbLb1EE
	.section	.rodata
	.align 8
.LC12:
	.string	"cannot create std::vector larger than max_size()"
	.section	.text._ZNSt6vectorIcSaIcEE17_S_check_init_lenEmRKS0_,"axG",@progbits,_ZNSt6vectorIcSaIcEE17_S_check_init_lenEmRKS0_,comdat
	.weak	_ZNSt6vectorIcSaIcEE17_S_check_init_lenEmRKS0_
	.type	_ZNSt6vectorIcSaIcEE17_S_check_init_lenEmRKS0_, @function
_ZNSt6vectorIcSaIcEE17_S_check_init_lenEmRKS0_:
.LFB5387:
	.cfi_startproc
	endbr64
	pushq	%rbp
	.cfi_def_cfa_offset 16
	.cfi_offset 6, -16
	movq	%rsp, %rbp
	.cfi_def_cfa_register 6
	pushq	%rbx
	subq	$40, %rsp
	.cfi_offset 3, -24
	movq	%rdi, -40(%rbp)
	movq	%rsi, -48(%rbp)
	movq	%fs:40, %rax
	movq	%rax, -24(%rbp)
	xorl	%eax, %eax
	movq	-48(%rbp), %rdx
	leaq	-25(%rbp), %rax
	movq	%rdx, %rsi
	movq	%rax, %rdi
	call	_ZNSaIcEC1ERKS_@PLT
	leaq	-25(%rbp), %rax
	movq	%rax, %rdi
	call	_ZNSt6vectorIcSaIcEE11_S_max_sizeERKS0_
	cmpq	%rax, -40(%rbp)
	seta	%bl
	leaq	-25(%rbp), %rax
	movq	%rax, %rdi
	call	_ZNSaIcED1Ev@PLT
	testb	%bl, %bl
	je	.L280
	leaq	.LC12(%rip), %rax
	movq	%rax, %rdi
	call	_ZSt20__throw_length_errorPKc@PLT
.L280:
	movq	-40(%rbp), %rax
	movq	-24(%rbp), %rdx
	subq	%fs:40, %rdx
	je	.L282
	call	__stack_chk_fail@PLT
.L282:
	movq	-8(%rbp), %rbx
	leave
	.cfi_def_cfa 7, 8
	ret
	.cfi_endproc
.LFE5387:
	.size	_ZNSt6vectorIcSaIcEE17_S_check_init_lenEmRKS0_, .-_ZNSt6vectorIcSaIcEE17_S_check_init_lenEmRKS0_
	.section	.text._ZNSt12_Vector_baseIcSaIcEE12_Vector_implD2Ev,"axG",@progbits,_ZNSt12_Vector_baseIcSaIcEE12_Vector_implD5Ev,comdat
	.align 2
	.weak	_ZNSt12_Vector_baseIcSaIcEE12_Vector_implD2Ev
	.type	_ZNSt12_Vector_baseIcSaIcEE12_Vector_implD2Ev, @function
_ZNSt12_Vector_baseIcSaIcEE12_Vector_implD2Ev:
.LFB5390:
	.cfi_startproc
	endbr64
	pushq	%rbp
	.cfi_def_cfa_offset 16
	.cfi_offset 6, -16
	movq	%rsp, %rbp
	.cfi_def_cfa_register 6
	subq	$16, %rsp
	movq	%rdi, -8(%rbp)
	movq	-8(%rbp), %rax
	movq	%rax, %rdi
	call	_ZNSaIcED2Ev@PLT
	nop
	leave
	.cfi_def_cfa 7, 8
	ret
	.cfi_endproc
.LFE5390:
	.size	_ZNSt12_Vector_baseIcSaIcEE12_Vector_implD2Ev, .-_ZNSt12_Vector_baseIcSaIcEE12_Vector_implD2Ev
	.weak	_ZNSt12_Vector_baseIcSaIcEE12_Vector_implD1Ev
	.set	_ZNSt12_Vector_baseIcSaIcEE12_Vector_implD1Ev,_ZNSt12_Vector_baseIcSaIcEE12_Vector_implD2Ev
	.section	.text._ZNSt12_Vector_baseIcSaIcEEC2EmRKS0_,"axG",@progbits,_ZNSt12_Vector_baseIcSaIcEEC5EmRKS0_,comdat
	.align 2
	.weak	_ZNSt12_Vector_baseIcSaIcEEC2EmRKS0_
	.type	_ZNSt12_Vector_baseIcSaIcEEC2EmRKS0_, @function
_ZNSt12_Vector_baseIcSaIcEEC2EmRKS0_:
.LFB5392:
	.cfi_startproc
	.cfi_personality 0x9b,DW.ref.__gxx_personality_v0
	.cfi_lsda 0x1b,.LLSDA5392
	endbr64
	pushq	%rbp
	.cfi_def_cfa_offset 16
	.cfi_offset 6, -16
	movq	%rsp, %rbp
	.cfi_def_cfa_register 6
	pushq	%rbx
	subq	$40, %rsp
	.cfi_offset 3, -24
	movq	%rdi, -24(%rbp)
	movq	%rsi, -32(%rbp)
	movq	%rdx, -40(%rbp)
	movq	-24(%rbp), %rax
	movq	-40(%rbp), %rdx
	movq	%rdx, %rsi
	movq	%rax, %rdi
	call	_ZNSt12_Vector_baseIcSaIcEE12_Vector_implC1ERKS0_
	movq	-32(%rbp), %rdx
	movq	-24(%rbp), %rax
	movq	%rdx, %rsi
	movq	%rax, %rdi
.LEHB31:
	call	_ZNSt12_Vector_baseIcSaIcEE17_M_create_storageEm
.LEHE31:
	jmp	.L287
.L286:
	endbr64
	movq	%rax, %rbx
	movq	-24(%rbp), %rax
	movq	%rax, %rdi
	call	_ZNSt12_Vector_baseIcSaIcEE12_Vector_implD1Ev
	movq	%rbx, %rax
	movq	%rax, %rdi
.LEHB32:
	call	_Unwind_Resume@PLT
.LEHE32:
.L287:
	movq	-8(%rbp), %rbx
	leave
	.cfi_def_cfa 7, 8
	ret
	.cfi_endproc
.LFE5392:
	.section	.gcc_except_table
.LLSDA5392:
	.byte	0xff
	.byte	0xff
	.byte	0x1
	.uleb128 .LLSDACSE5392-.LLSDACSB5392
.LLSDACSB5392:
	.uleb128 .LEHB31-.LFB5392
	.uleb128 .LEHE31-.LEHB31
	.uleb128 .L286-.LFB5392
	.uleb128 0
	.uleb128 .LEHB32-.LFB5392
	.uleb128 .LEHE32-.LEHB32
	.uleb128 0
	.uleb128 0
.LLSDACSE5392:
	.section	.text._ZNSt12_Vector_baseIcSaIcEEC2EmRKS0_,"axG",@progbits,_ZNSt12_Vector_baseIcSaIcEEC5EmRKS0_,comdat
	.size	_ZNSt12_Vector_baseIcSaIcEEC2EmRKS0_, .-_ZNSt12_Vector_baseIcSaIcEEC2EmRKS0_
	.weak	_ZNSt12_Vector_baseIcSaIcEEC1EmRKS0_
	.set	_ZNSt12_Vector_baseIcSaIcEEC1EmRKS0_,_ZNSt12_Vector_baseIcSaIcEEC2EmRKS0_
	.section	.text._ZNSt12_Vector_baseIcSaIcEED2Ev,"axG",@progbits,_ZNSt12_Vector_baseIcSaIcEED5Ev,comdat
	.align 2
	.weak	_ZNSt12_Vector_baseIcSaIcEED2Ev
	.type	_ZNSt12_Vector_baseIcSaIcEED2Ev, @function
_ZNSt12_Vector_baseIcSaIcEED2Ev:
.LFB5395:
	.cfi_startproc
	.cfi_personality 0x9b,DW.ref.__gxx_personality_v0
	.cfi_lsda 0x1b,.LLSDA5395
	endbr64
	pushq	%rbp
	.cfi_def_cfa_offset 16
	.cfi_offset 6, -16
	movq	%rsp, %rbp
	.cfi_def_cfa_register 6
	subq	$16, %rsp
	movq	%rdi, -8(%rbp)
	movq	-8(%rbp), %rax
	movq	16(%rax), %rdx
	movq	-8(%rbp), %rax
	movq	(%rax), %rcx
	movq	%rdx, %rax
	subq	%rcx, %rax
	movq	%rax, %rdx
	movq	-8(%rbp), %rax
	movq	(%rax), %rcx
	movq	-8(%rbp), %rax
	movq	%rcx, %rsi
	movq	%rax, %rdi
	call	_ZNSt12_Vector_baseIcSaIcEE13_M_deallocateEPcm
	movq	-8(%rbp), %rax
	movq	%rax, %rdi
	call	_ZNSt12_Vector_baseIcSaIcEE12_Vector_implD1Ev
	nop
	leave
	.cfi_def_cfa 7, 8
	ret
	.cfi_endproc
.LFE5395:
	.section	.gcc_except_table
.LLSDA5395:
	.byte	0xff
	.byte	0xff
	.byte	0x1
	.uleb128 .LLSDACSE5395-.LLSDACSB5395
.LLSDACSB5395:
.LLSDACSE5395:
	.section	.text._ZNSt12_Vector_baseIcSaIcEED2Ev,"axG",@progbits,_ZNSt12_Vector_baseIcSaIcEED5Ev,comdat
	.size	_ZNSt12_Vector_baseIcSaIcEED2Ev, .-_ZNSt12_Vector_baseIcSaIcEED2Ev
	.weak	_ZNSt12_Vector_baseIcSaIcEED1Ev
	.set	_ZNSt12_Vector_baseIcSaIcEED1Ev,_ZNSt12_Vector_baseIcSaIcEED2Ev
	.section	.text._ZNSt6vectorIcSaIcEE21_M_default_initializeEm,"axG",@progbits,_ZNSt6vectorIcSaIcEE21_M_default_initializeEm,comdat
	.align 2
	.weak	_ZNSt6vectorIcSaIcEE21_M_default_initializeEm
	.type	_ZNSt6vectorIcSaIcEE21_M_default_initializeEm, @function
_ZNSt6vectorIcSaIcEE21_M_default_initializeEm:
.LFB5397:
	.cfi_startproc
	endbr64
	pushq	%rbp
	.cfi_def_cfa_offset 16
	.cfi_offset 6, -16
	movq	%rsp, %rbp
	.cfi_def_cfa_register 6
	subq	$16, %rsp
	movq	%rdi, -8(%rbp)
	movq	%rsi, -16(%rbp)
	movq	-8(%rbp), %rax
	movq	%rax, %rdi
	call	_ZNSt12_Vector_baseIcSaIcEE19_M_get_Tp_allocatorEv
	movq	%rax, %rdx
	movq	-8(%rbp), %rax
	movq	(%rax), %rax
	movq	-16(%rbp), %rcx
	movq	%rcx, %rsi
	movq	%rax, %rdi
	call	_ZSt27__uninitialized_default_n_aIPcmcET_S1_T0_RSaIT1_E
	movq	-8(%rbp), %rdx
	movq	%rax, 8(%rdx)
	nop
	leave
	.cfi_def_cfa 7, 8
	ret
	.cfi_endproc
.LFE5397:
	.size	_ZNSt6vectorIcSaIcEE21_M_default_initializeEm, .-_ZNSt6vectorIcSaIcEE21_M_default_initializeEm
	.section	.text._ZNSt12_Vector_baseIcSaIcEE19_M_get_Tp_allocatorEv,"axG",@progbits,_ZNSt12_Vector_baseIcSaIcEE19_M_get_Tp_allocatorEv,comdat
	.align 2
	.weak	_ZNSt12_Vector_baseIcSaIcEE19_M_get_Tp_allocatorEv
	.type	_ZNSt12_Vector_baseIcSaIcEE19_M_get_Tp_allocatorEv, @function
_ZNSt12_Vector_baseIcSaIcEE19_M_get_Tp_allocatorEv:
.LFB5398:
	.cfi_startproc
	endbr64
	pushq	%rbp
	.cfi_def_cfa_offset 16
	.cfi_offset 6, -16
	movq	%rsp, %rbp
	.cfi_def_cfa_register 6
	movq	%rdi, -8(%rbp)
	movq	-8(%rbp), %rax
	popq	%rbp
	.cfi_def_cfa 7, 8
	ret
	.cfi_endproc
.LFE5398:
	.size	_ZNSt12_Vector_baseIcSaIcEE19_M_get_Tp_allocatorEv, .-_ZNSt12_Vector_baseIcSaIcEE19_M_get_Tp_allocatorEv
	.section	.text._ZSt8_DestroyIPccEvT_S1_RSaIT0_E,"axG",@progbits,_ZSt8_DestroyIPccEvT_S1_RSaIT0_E,comdat
	.weak	_ZSt8_DestroyIPccEvT_S1_RSaIT0_E
	.type	_ZSt8_DestroyIPccEvT_S1_RSaIT0_E, @function
_ZSt8_DestroyIPccEvT_S1_RSaIT0_E:
.LFB5399:
	.cfi_startproc
	endbr64
	pushq	%rbp
	.cfi_def_cfa_offset 16
	.cfi_offset 6, -16
	movq	%rsp, %rbp
	.cfi_def_cfa_register 6
	subq	$32, %rsp
	movq	%rdi, -8(%rbp)
	movq	%rsi, -16(%rbp)
	movq	%rdx, -24(%rbp)
	movq	-16(%rbp), %rdx
	movq	-8(%rbp), %rax
	movq	%rdx, %rsi
	movq	%rax, %rdi
	call	_ZSt8_DestroyIPcEvT_S1_
	nop
	leave
	.cfi_def_cfa 7, 8
	ret
	.cfi_endproc
.LFE5399:
	.size	_ZSt8_DestroyIPccEvT_S1_RSaIT0_E, .-_ZSt8_DestroyIPccEvT_S1_RSaIT0_E
	.section	.text._ZNSaISt13_Rb_tree_nodeISt4pairIKNSt7__cxx1112basic_stringIcSt11char_traitsIcESaIcEEESt6vectorIfSaIfEEEEEC2Ev,"axG",@progbits,_ZNSaISt13_Rb_tree_nodeISt4pairIKNSt7__cxx1112basic_stringIcSt11char_traitsIcESaIcEEESt6vectorIfSaIfEEEEEC5Ev,comdat
	.align 2
	.weak	_ZNSaISt13_Rb_tree_nodeISt4pairIKNSt7__cxx1112basic_stringIcSt11char_traitsIcESaIcEEESt6vectorIfSaIfEEEEEC2Ev
	.type	_ZNSaISt13_Rb_tree_nodeISt4pairIKNSt7__cxx1112basic_stringIcSt11char_traitsIcESaIcEEESt6vectorIfSaIfEEEEEC2Ev, @function
_ZNSaISt13_Rb_tree_nodeISt4pairIKNSt7__cxx1112basic_stringIcSt11char_traitsIcESaIcEEESt6vectorIfSaIfEEEEEC2Ev:
.LFB5401:
	.cfi_startproc
	endbr64
	pushq	%rbp
	.cfi_def_cfa_offset 16
	.cfi_offset 6, -16
	movq	%rsp, %rbp
	.cfi_def_cfa_register 6
	subq	$16, %rsp
	movq	%rdi, -8(%rbp)
	movq	-8(%rbp), %rax
	movq	%rax, %rdi
	call	_ZN9__gnu_cxx13new_allocatorISt13_Rb_tree_nodeISt4pairIKNSt7__cxx1112basic_stringIcSt11char_traitsIcESaIcEEESt6vectorIfSaIfEEEEEC2Ev
	nop
	leave
	.cfi_def_cfa 7, 8
	ret
	.cfi_endproc
.LFE5401:
	.size	_ZNSaISt13_Rb_tree_nodeISt4pairIKNSt7__cxx1112basic_stringIcSt11char_traitsIcESaIcEEESt6vectorIfSaIfEEEEEC2Ev, .-_ZNSaISt13_Rb_tree_nodeISt4pairIKNSt7__cxx1112basic_stringIcSt11char_traitsIcESaIcEEESt6vectorIfSaIfEEEEEC2Ev
	.weak	_ZNSaISt13_Rb_tree_nodeISt4pairIKNSt7__cxx1112basic_stringIcSt11char_traitsIcESaIcEEESt6vectorIfSaIfEEEEEC1Ev
	.set	_ZNSaISt13_Rb_tree_nodeISt4pairIKNSt7__cxx1112basic_stringIcSt11char_traitsIcESaIcEEESt6vectorIfSaIfEEEEEC1Ev,_ZNSaISt13_Rb_tree_nodeISt4pairIKNSt7__cxx1112basic_stringIcSt11char_traitsIcESaIcEEESt6vectorIfSaIfEEEEEC2Ev
	.section	.text._ZNSt20_Rb_tree_key_compareISt4lessINSt7__cxx1112basic_stringIcSt11char_traitsIcESaIcEEEEEC2Ev,"axG",@progbits,_ZNSt20_Rb_tree_key_compareISt4lessINSt7__cxx1112basic_stringIcSt11char_traitsIcESaIcEEEEEC5Ev,comdat
	.align 2
	.weak	_ZNSt20_Rb_tree_key_compareISt4lessINSt7__cxx1112basic_stringIcSt11char_traitsIcESaIcEEEEEC2Ev
	.type	_ZNSt20_Rb_tree_key_compareISt4lessINSt7__cxx1112basic_stringIcSt11char_traitsIcESaIcEEEEEC2Ev, @function
_ZNSt20_Rb_tree_key_compareISt4lessINSt7__cxx1112basic_stringIcSt11char_traitsIcESaIcEEEEEC2Ev:
.LFB5404:
	.cfi_startproc
	endbr64
	pushq	%rbp
	.cfi_def_cfa_offset 16
	.cfi_offset 6, -16
	movq	%rsp, %rbp
	.cfi_def_cfa_register 6
	movq	%rdi, -8(%rbp)
	nop
	popq	%rbp
	.cfi_def_cfa 7, 8
	ret
	.cfi_endproc
.LFE5404:
	.size	_ZNSt20_Rb_tree_key_compareISt4lessINSt7__cxx1112basic_stringIcSt11char_traitsIcESaIcEEEEEC2Ev, .-_ZNSt20_Rb_tree_key_compareISt4lessINSt7__cxx1112basic_stringIcSt11char_traitsIcESaIcEEEEEC2Ev
	.weak	_ZNSt20_Rb_tree_key_compareISt4lessINSt7__cxx1112basic_stringIcSt11char_traitsIcESaIcEEEEEC1Ev
	.set	_ZNSt20_Rb_tree_key_compareISt4lessINSt7__cxx1112basic_stringIcSt11char_traitsIcESaIcEEEEEC1Ev,_ZNSt20_Rb_tree_key_compareISt4lessINSt7__cxx1112basic_stringIcSt11char_traitsIcESaIcEEEEEC2Ev
	.section	.text._ZN9__gnu_cxx13new_allocatorISt13_Rb_tree_nodeISt4pairIKNSt7__cxx1112basic_stringIcSt11char_traitsIcESaIcEEESt6vectorIfSaIfEEEEED2Ev,"axG",@progbits,_ZN9__gnu_cxx13new_allocatorISt13_Rb_tree_nodeISt4pairIKNSt7__cxx1112basic_stringIcSt11char_traitsIcESaIcEEESt6vectorIfSaIfEEEEED5Ev,comdat
	.align 2
	.weak	_ZN9__gnu_cxx13new_allocatorISt13_Rb_tree_nodeISt4pairIKNSt7__cxx1112basic_stringIcSt11char_traitsIcESaIcEEESt6vectorIfSaIfEEEEED2Ev
	.type	_ZN9__gnu_cxx13new_allocatorISt13_Rb_tree_nodeISt4pairIKNSt7__cxx1112basic_stringIcSt11char_traitsIcESaIcEEESt6vectorIfSaIfEEEEED2Ev, @function
_ZN9__gnu_cxx13new_allocatorISt13_Rb_tree_nodeISt4pairIKNSt7__cxx1112basic_stringIcSt11char_traitsIcESaIcEEESt6vectorIfSaIfEEEEED2Ev:
.LFB5407:
	.cfi_startproc
	endbr64
	pushq	%rbp
	.cfi_def_cfa_offset 16
	.cfi_offset 6, -16
	movq	%rsp, %rbp
	.cfi_def_cfa_register 6
	movq	%rdi, -8(%rbp)
	nop
	popq	%rbp
	.cfi_def_cfa 7, 8
	ret
	.cfi_endproc
.LFE5407:
	.size	_ZN9__gnu_cxx13new_allocatorISt13_Rb_tree_nodeISt4pairIKNSt7__cxx1112basic_stringIcSt11char_traitsIcESaIcEEESt6vectorIfSaIfEEEEED2Ev, .-_ZN9__gnu_cxx13new_allocatorISt13_Rb_tree_nodeISt4pairIKNSt7__cxx1112basic_stringIcSt11char_traitsIcESaIcEEESt6vectorIfSaIfEEEEED2Ev
	.weak	_ZN9__gnu_cxx13new_allocatorISt13_Rb_tree_nodeISt4pairIKNSt7__cxx1112basic_stringIcSt11char_traitsIcESaIcEEESt6vectorIfSaIfEEEEED1Ev
	.set	_ZN9__gnu_cxx13new_allocatorISt13_Rb_tree_nodeISt4pairIKNSt7__cxx1112basic_stringIcSt11char_traitsIcESaIcEEESt6vectorIfSaIfEEEEED1Ev,_ZN9__gnu_cxx13new_allocatorISt13_Rb_tree_nodeISt4pairIKNSt7__cxx1112basic_stringIcSt11char_traitsIcESaIcEEESt6vectorIfSaIfEEEEED2Ev
	.section	.text._ZNSt8_Rb_treeINSt7__cxx1112basic_stringIcSt11char_traitsIcESaIcEEESt4pairIKS5_St6vectorIfSaIfEEESt10_Select1stISB_ESt4lessIS5_ESaISB_EE8_M_eraseEPSt13_Rb_tree_nodeISB_E,"axG",@progbits,_ZNSt8_Rb_treeINSt7__cxx1112basic_stringIcSt11char_traitsIcESaIcEEESt4pairIKS5_St6vectorIfSaIfEEESt10_Select1stISB_ESt4lessIS5_ESaISB_EE8_M_eraseEPSt13_Rb_tree_nodeISB_E,comdat
	.align 2
	.weak	_ZNSt8_Rb_treeINSt7__cxx1112basic_stringIcSt11char_traitsIcESaIcEEESt4pairIKS5_St6vectorIfSaIfEEESt10_Select1stISB_ESt4lessIS5_ESaISB_EE8_M_eraseEPSt13_Rb_tree_nodeISB_E
	.type	_ZNSt8_Rb_treeINSt7__cxx1112basic_stringIcSt11char_traitsIcESaIcEEESt4pairIKS5_St6vectorIfSaIfEEESt10_Select1stISB_ESt4lessIS5_ESaISB_EE8_M_eraseEPSt13_Rb_tree_nodeISB_E, @function
_ZNSt8_Rb_treeINSt7__cxx1112basic_stringIcSt11char_traitsIcESaIcEEESt4pairIKS5_St6vectorIfSaIfEEESt10_Select1stISB_ESt4lessIS5_ESaISB_EE8_M_eraseEPSt13_Rb_tree_nodeISB_E:
.LFB5409:
	.cfi_startproc
	endbr64
	pushq	%rbp
	.cfi_def_cfa_offset 16
	.cfi_offset 6, -16
	movq	%rsp, %rbp
	.cfi_def_cfa_register 6
	subq	$32, %rsp
	movq	%rdi, -24(%rbp)
	movq	%rsi, -32(%rbp)
	jmp	.L297
.L298:
	movq	-32(%rbp), %rax
	movq	%rax, %rdi
	call	_ZNSt8_Rb_treeINSt7__cxx1112basic_stringIcSt11char_traitsIcESaIcEEESt4pairIKS5_St6vectorIfSaIfEEESt10_Select1stISB_ESt4lessIS5_ESaISB_EE8_S_rightEPSt18_Rb_tree_node_base
	movq	%rax, %rdx
	movq	-24(%rbp), %rax
	movq	%rdx, %rsi
	movq	%rax, %rdi
	call	_ZNSt8_Rb_treeINSt7__cxx1112basic_stringIcSt11char_traitsIcESaIcEEESt4pairIKS5_St6vectorIfSaIfEEESt10_Select1stISB_ESt4lessIS5_ESaISB_EE8_M_eraseEPSt13_Rb_tree_nodeISB_E
	movq	-32(%rbp), %rax
	movq	%rax, %rdi
	call	_ZNSt8_Rb_treeINSt7__cxx1112basic_stringIcSt11char_traitsIcESaIcEEESt4pairIKS5_St6vectorIfSaIfEEESt10_Select1stISB_ESt4lessIS5_ESaISB_EE7_S_leftEPSt18_Rb_tree_node_base
	movq	%rax, -8(%rbp)
	movq	-32(%rbp), %rdx
	movq	-24(%rbp), %rax
	movq	%rdx, %rsi
	movq	%rax, %rdi
	call	_ZNSt8_Rb_treeINSt7__cxx1112basic_stringIcSt11char_traitsIcESaIcEEESt4pairIKS5_St6vectorIfSaIfEEESt10_Select1stISB_ESt4lessIS5_ESaISB_EE12_M_drop_nodeEPSt13_Rb_tree_nodeISB_E
	movq	-8(%rbp), %rax
	movq	%rax, -32(%rbp)
.L297:
	cmpq	$0, -32(%rbp)
	jne	.L298
	nop
	nop
	leave
	.cfi_def_cfa 7, 8
	ret
	.cfi_endproc
.LFE5409:
	.size	_ZNSt8_Rb_treeINSt7__cxx1112basic_stringIcSt11char_traitsIcESaIcEEESt4pairIKS5_St6vectorIfSaIfEEESt10_Select1stISB_ESt4lessIS5_ESaISB_EE8_M_eraseEPSt13_Rb_tree_nodeISB_E, .-_ZNSt8_Rb_treeINSt7__cxx1112basic_stringIcSt11char_traitsIcESaIcEEESt4pairIKS5_St6vectorIfSaIfEEESt10_Select1stISB_ESt4lessIS5_ESaISB_EE8_M_eraseEPSt13_Rb_tree_nodeISB_E
	.section	.text._ZNSt8_Rb_treeINSt7__cxx1112basic_stringIcSt11char_traitsIcESaIcEEESt4pairIKS5_St6vectorIfSaIfEEESt10_Select1stISB_ESt4lessIS5_ESaISB_EE8_M_beginEv,"axG",@progbits,_ZNSt8_Rb_treeINSt7__cxx1112basic_stringIcSt11char_traitsIcESaIcEEESt4pairIKS5_St6vectorIfSaIfEEESt10_Select1stISB_ESt4lessIS5_ESaISB_EE8_M_beginEv,comdat
	.align 2
	.weak	_ZNSt8_Rb_treeINSt7__cxx1112basic_stringIcSt11char_traitsIcESaIcEEESt4pairIKS5_St6vectorIfSaIfEEESt10_Select1stISB_ESt4lessIS5_ESaISB_EE8_M_beginEv
	.type	_ZNSt8_Rb_treeINSt7__cxx1112basic_stringIcSt11char_traitsIcESaIcEEESt4pairIKS5_St6vectorIfSaIfEEESt10_Select1stISB_ESt4lessIS5_ESaISB_EE8_M_beginEv, @function
_ZNSt8_Rb_treeINSt7__cxx1112basic_stringIcSt11char_traitsIcESaIcEEESt4pairIKS5_St6vectorIfSaIfEEESt10_Select1stISB_ESt4lessIS5_ESaISB_EE8_M_beginEv:
.LFB5410:
	.cfi_startproc
	endbr64
	pushq	%rbp
	.cfi_def_cfa_offset 16
	.cfi_offset 6, -16
	movq	%rsp, %rbp
	.cfi_def_cfa_register 6
	subq	$16, %rsp
	movq	%rdi, -8(%rbp)
	movq	-8(%rbp), %rax
	movq	%rax, %rdi
	call	_ZNKSt8_Rb_treeINSt7__cxx1112basic_stringIcSt11char_traitsIcESaIcEEESt4pairIKS5_St6vectorIfSaIfEEESt10_Select1stISB_ESt4lessIS5_ESaISB_EE9_M_mbeginEv
	leave
	.cfi_def_cfa 7, 8
	ret
	.cfi_endproc
.LFE5410:
	.size	_ZNSt8_Rb_treeINSt7__cxx1112basic_stringIcSt11char_traitsIcESaIcEEESt4pairIKS5_St6vectorIfSaIfEEESt10_Select1stISB_ESt4lessIS5_ESaISB_EE8_M_beginEv, .-_ZNSt8_Rb_treeINSt7__cxx1112basic_stringIcSt11char_traitsIcESaIcEEESt4pairIKS5_St6vectorIfSaIfEEESt10_Select1stISB_ESt4lessIS5_ESaISB_EE8_M_beginEv
	.section	.text._ZNKSt6vectorIcSaIcEE11_M_data_ptrIcEEPT_S4_,"axG",@progbits,_ZNKSt6vectorIcSaIcEE11_M_data_ptrIcEEPT_S4_,comdat
	.align 2
	.weak	_ZNKSt6vectorIcSaIcEE11_M_data_ptrIcEEPT_S4_
	.type	_ZNKSt6vectorIcSaIcEE11_M_data_ptrIcEEPT_S4_, @function
_ZNKSt6vectorIcSaIcEE11_M_data_ptrIcEEPT_S4_:
.LFB5411:
	.cfi_startproc
	endbr64
	pushq	%rbp
	.cfi_def_cfa_offset 16
	.cfi_offset 6, -16
	movq	%rsp, %rbp
	.cfi_def_cfa_register 6
	movq	%rdi, -8(%rbp)
	movq	%rsi, -16(%rbp)
	movq	-16(%rbp), %rax
	popq	%rbp
	.cfi_def_cfa 7, 8
	ret
	.cfi_endproc
.LFE5411:
	.size	_ZNKSt6vectorIcSaIcEE11_M_data_ptrIcEEPT_S4_, .-_ZNKSt6vectorIcSaIcEE11_M_data_ptrIcEEPT_S4_
	.section	.text._ZN9__gnu_cxx17__normal_iteratorIPcSt6vectorIcSaIcEEEC2ERKS1_,"axG",@progbits,_ZN9__gnu_cxx17__normal_iteratorIPcSt6vectorIcSaIcEEEC5ERKS1_,comdat
	.align 2
	.weak	_ZN9__gnu_cxx17__normal_iteratorIPcSt6vectorIcSaIcEEEC2ERKS1_
	.type	_ZN9__gnu_cxx17__normal_iteratorIPcSt6vectorIcSaIcEEEC2ERKS1_, @function
_ZN9__gnu_cxx17__normal_iteratorIPcSt6vectorIcSaIcEEEC2ERKS1_:
.LFB5423:
	.cfi_startproc
	endbr64
	pushq	%rbp
	.cfi_def_cfa_offset 16
	.cfi_offset 6, -16
	movq	%rsp, %rbp
	.cfi_def_cfa_register 6
	movq	%rdi, -8(%rbp)
	movq	%rsi, -16(%rbp)
	movq	-16(%rbp), %rax
	movq	(%rax), %rdx
	movq	-8(%rbp), %rax
	movq	%rdx, (%rax)
	nop
	popq	%rbp
	.cfi_def_cfa 7, 8
	ret
	.cfi_endproc
.LFE5423:
	.size	_ZN9__gnu_cxx17__normal_iteratorIPcSt6vectorIcSaIcEEEC2ERKS1_, .-_ZN9__gnu_cxx17__normal_iteratorIPcSt6vectorIcSaIcEEEC2ERKS1_
	.weak	_ZN9__gnu_cxx17__normal_iteratorIPcSt6vectorIcSaIcEEEC1ERKS1_
	.set	_ZN9__gnu_cxx17__normal_iteratorIPcSt6vectorIcSaIcEEEC1ERKS1_,_ZN9__gnu_cxx17__normal_iteratorIPcSt6vectorIcSaIcEEEC2ERKS1_
	.section	.text._ZSt12__miter_baseIN9__gnu_cxx17__normal_iteratorIPcNSt7__cxx1112basic_stringIcSt11char_traitsIcESaIcEEEEEET_SA_,"axG",@progbits,_ZSt12__miter_baseIN9__gnu_cxx17__normal_iteratorIPcNSt7__cxx1112basic_stringIcSt11char_traitsIcESaIcEEEEEET_SA_,comdat
	.weak	_ZSt12__miter_baseIN9__gnu_cxx17__normal_iteratorIPcNSt7__cxx1112basic_stringIcSt11char_traitsIcESaIcEEEEEET_SA_
	.type	_ZSt12__miter_baseIN9__gnu_cxx17__normal_iteratorIPcNSt7__cxx1112basic_stringIcSt11char_traitsIcESaIcEEEEEET_SA_, @function
_ZSt12__miter_baseIN9__gnu_cxx17__normal_iteratorIPcNSt7__cxx1112basic_stringIcSt11char_traitsIcESaIcEEEEEET_SA_:
.LFB5425:
	.cfi_startproc
	endbr64
	pushq	%rbp
	.cfi_def_cfa_offset 16
	.cfi_offset 6, -16
	movq	%rsp, %rbp
	.cfi_def_cfa_register 6
	movq	%rdi, -8(%rbp)
	movq	-8(%rbp), %rax
	popq	%rbp
	.cfi_def_cfa 7, 8
	ret
	.cfi_endproc
.LFE5425:
	.size	_ZSt12__miter_baseIN9__gnu_cxx17__normal_iteratorIPcNSt7__cxx1112basic_stringIcSt11char_traitsIcESaIcEEEEEET_SA_, .-_ZSt12__miter_baseIN9__gnu_cxx17__normal_iteratorIPcNSt7__cxx1112basic_stringIcSt11char_traitsIcESaIcEEEEEET_SA_
	.section	.text._ZSt13__copy_move_aILb0EN9__gnu_cxx17__normal_iteratorIPcNSt7__cxx1112basic_stringIcSt11char_traitsIcESaIcEEEEENS1_IS2_St6vectorIcS7_EEEET1_T0_SE_SD_,"axG",@progbits,_ZSt13__copy_move_aILb0EN9__gnu_cxx17__normal_iteratorIPcNSt7__cxx1112basic_stringIcSt11char_traitsIcESaIcEEEEENS1_IS2_St6vectorIcS7_EEEET1_T0_SE_SD_,comdat
	.weak	_ZSt13__copy_move_aILb0EN9__gnu_cxx17__normal_iteratorIPcNSt7__cxx1112basic_stringIcSt11char_traitsIcESaIcEEEEENS1_IS2_St6vectorIcS7_EEEET1_T0_SE_SD_
	.type	_ZSt13__copy_move_aILb0EN9__gnu_cxx17__normal_iteratorIPcNSt7__cxx1112basic_stringIcSt11char_traitsIcESaIcEEEEENS1_IS2_St6vectorIcS7_EEEET1_T0_SE_SD_, @function
_ZSt13__copy_move_aILb0EN9__gnu_cxx17__normal_iteratorIPcNSt7__cxx1112basic_stringIcSt11char_traitsIcESaIcEEEEENS1_IS2_St6vectorIcS7_EEEET1_T0_SE_SD_:
.LFB5426:
	.cfi_startproc
	endbr64
	pushq	%rbp
	.cfi_def_cfa_offset 16
	.cfi_offset 6, -16
	movq	%rsp, %rbp
	.cfi_def_cfa_register 6
	pushq	%r12
	pushq	%rbx
	subq	$32, %rsp
	.cfi_offset 12, -24
	.cfi_offset 3, -32
	movq	%rdi, -24(%rbp)
	movq	%rsi, -32(%rbp)
	movq	%rdx, -40(%rbp)
	movq	-40(%rbp), %rax
	movq	%rax, %rdi
	call	_ZSt12__niter_baseIPcSt6vectorIcSaIcEEET_N9__gnu_cxx17__normal_iteratorIS4_T0_EE
	movq	%rax, %r12
	movq	-32(%rbp), %rax
	movq	%rax, %rdi
	call	_ZSt12__niter_baseIPcNSt7__cxx1112basic_stringIcSt11char_traitsIcESaIcEEEET_N9__gnu_cxx17__normal_iteratorIS7_T0_EE
	movq	%rax, %rbx
	movq	-24(%rbp), %rax
	movq	%rax, %rdi
	call	_ZSt12__niter_baseIPcNSt7__cxx1112basic_stringIcSt11char_traitsIcESaIcEEEET_N9__gnu_cxx17__normal_iteratorIS7_T0_EE
	movq	%r12, %rdx
	movq	%rbx, %rsi
	movq	%rax, %rdi
	call	_ZSt14__copy_move_a1ILb0EPcS0_ET1_T0_S2_S1_
	movq	%rax, %rdx
	movq	-40(%rbp), %rax
	movq	%rdx, %rsi
	movq	%rax, %rdi
	call	_ZSt12__niter_wrapIN9__gnu_cxx17__normal_iteratorIPcSt6vectorIcSaIcEEEES2_ET_S7_T0_
	addq	$32, %rsp
	popq	%rbx
	popq	%r12
	popq	%rbp
	.cfi_def_cfa 7, 8
	ret
	.cfi_endproc
.LFE5426:
	.size	_ZSt13__copy_move_aILb0EN9__gnu_cxx17__normal_iteratorIPcNSt7__cxx1112basic_stringIcSt11char_traitsIcESaIcEEEEENS1_IS2_St6vectorIcS7_EEEET1_T0_SE_SD_, .-_ZSt13__copy_move_aILb0EN9__gnu_cxx17__normal_iteratorIPcNSt7__cxx1112basic_stringIcSt11char_traitsIcESaIcEEEEENS1_IS2_St6vectorIcS7_EEEET1_T0_SE_SD_
	.section	.text._ZNSt8_Rb_treeINSt7__cxx1112basic_stringIcSt11char_traitsIcESaIcEEESt4pairIKS5_St6vectorIfSaIfEEESt10_Select1stISB_ESt4lessIS5_ESaISB_EE5beginEv,"axG",@progbits,_ZNSt8_Rb_treeINSt7__cxx1112basic_stringIcSt11char_traitsIcESaIcEEESt4pairIKS5_St6vectorIfSaIfEEESt10_Select1stISB_ESt4lessIS5_ESaISB_EE5beginEv,comdat
	.align 2
	.weak	_ZNSt8_Rb_treeINSt7__cxx1112basic_stringIcSt11char_traitsIcESaIcEEESt4pairIKS5_St6vectorIfSaIfEEESt10_Select1stISB_ESt4lessIS5_ESaISB_EE5beginEv
	.type	_ZNSt8_Rb_treeINSt7__cxx1112basic_stringIcSt11char_traitsIcESaIcEEESt4pairIKS5_St6vectorIfSaIfEEESt10_Select1stISB_ESt4lessIS5_ESaISB_EE5beginEv, @function
_ZNSt8_Rb_treeINSt7__cxx1112basic_stringIcSt11char_traitsIcESaIcEEESt4pairIKS5_St6vectorIfSaIfEEESt10_Select1stISB_ESt4lessIS5_ESaISB_EE5beginEv:
.LFB5427:
	.cfi_startproc
	endbr64
	pushq	%rbp
	.cfi_def_cfa_offset 16
	.cfi_offset 6, -16
	movq	%rsp, %rbp
	.cfi_def_cfa_register 6
	subq	$32, %rsp
	movq	%rdi, -24(%rbp)
	movq	%fs:40, %rax
	movq	%rax, -8(%rbp)
	xorl	%eax, %eax
	movq	-24(%rbp), %rax
	movq	24(%rax), %rdx
	leaq	-16(%rbp), %rax
	movq	%rdx, %rsi
	movq	%rax, %rdi
	call	_ZNSt17_Rb_tree_iteratorISt4pairIKNSt7__cxx1112basic_stringIcSt11char_traitsIcESaIcEEESt6vectorIfSaIfEEEEC1EPSt18_Rb_tree_node_base
	movq	-16(%rbp), %rax
	movq	-8(%rbp), %rdx
	subq	%fs:40, %rdx
	je	.L310
	call	__stack_chk_fail@PLT
.L310:
	leave
	.cfi_def_cfa 7, 8
	ret
	.cfi_endproc
.LFE5427:
	.size	_ZNSt8_Rb_treeINSt7__cxx1112basic_stringIcSt11char_traitsIcESaIcEEESt4pairIKS5_St6vectorIfSaIfEEESt10_Select1stISB_ESt4lessIS5_ESaISB_EE5beginEv, .-_ZNSt8_Rb_treeINSt7__cxx1112basic_stringIcSt11char_traitsIcESaIcEEESt4pairIKS5_St6vectorIfSaIfEEESt10_Select1stISB_ESt4lessIS5_ESaISB_EE5beginEv
	.section	.text._ZSt3getILm0EJPNSt10filesystem7__cxx114path5_List5_ImplENS3_13_Impl_deleterEEERNSt13tuple_elementIXT_ESt5tupleIJDpT0_EEE4typeERSB_,"axG",@progbits,_ZSt3getILm0EJPNSt10filesystem7__cxx114path5_List5_ImplENS3_13_Impl_deleterEEERNSt13tuple_elementIXT_ESt5tupleIJDpT0_EEE4typeERSB_,comdat
	.weak	_ZSt3getILm0EJPNSt10filesystem7__cxx114path5_List5_ImplENS3_13_Impl_deleterEEERNSt13tuple_elementIXT_ESt5tupleIJDpT0_EEE4typeERSB_
	.type	_ZSt3getILm0EJPNSt10filesystem7__cxx114path5_List5_ImplENS3_13_Impl_deleterEEERNSt13tuple_elementIXT_ESt5tupleIJDpT0_EEE4typeERSB_, @function
_ZSt3getILm0EJPNSt10filesystem7__cxx114path5_List5_ImplENS3_13_Impl_deleterEEERNSt13tuple_elementIXT_ESt5tupleIJDpT0_EEE4typeERSB_:
.LFB5489:
	.cfi_startproc
	endbr64
	pushq	%rbp
	.cfi_def_cfa_offset 16
	.cfi_offset 6, -16
	movq	%rsp, %rbp
	.cfi_def_cfa_register 6
	subq	$16, %rsp
	movq	%rdi, -8(%rbp)
	movq	-8(%rbp), %rax
	movq	%rax, %rdi
	call	_ZSt12__get_helperILm0EPNSt10filesystem7__cxx114path5_List5_ImplEJNS3_13_Impl_deleterEEERT0_RSt11_Tuple_implIXT_EJS7_DpT1_EE
	leave
	.cfi_def_cfa 7, 8
	ret
	.cfi_endproc
.LFE5489:
	.size	_ZSt3getILm0EJPNSt10filesystem7__cxx114path5_List5_ImplENS3_13_Impl_deleterEEERNSt13tuple_elementIXT_ESt5tupleIJDpT0_EEE4typeERSB_, .-_ZSt3getILm0EJPNSt10filesystem7__cxx114path5_List5_ImplENS3_13_Impl_deleterEEERNSt13tuple_elementIXT_ESt5tupleIJDpT0_EEE4typeERSB_
	.section	.text._ZNSt16allocator_traitsISaIcEE10deallocateERS0_Pcm,"axG",@progbits,_ZNSt16allocator_traitsISaIcEE10deallocateERS0_Pcm,comdat
	.weak	_ZNSt16allocator_traitsISaIcEE10deallocateERS0_Pcm
	.type	_ZNSt16allocator_traitsISaIcEE10deallocateERS0_Pcm, @function
_ZNSt16allocator_traitsISaIcEE10deallocateERS0_Pcm:
.LFB5500:
	.cfi_startproc
	endbr64
	pushq	%rbp
	.cfi_def_cfa_offset 16
	.cfi_offset 6, -16
	movq	%rsp, %rbp
	.cfi_def_cfa_register 6
	subq	$32, %rsp
	movq	%rdi, -8(%rbp)
	movq	%rsi, -16(%rbp)
	movq	%rdx, -24(%rbp)
	movq	-24(%rbp), %rdx
	movq	-16(%rbp), %rcx
	movq	-8(%rbp), %rax
	movq	%rcx, %rsi
	movq	%rax, %rdi
	call	_ZN9__gnu_cxx13new_allocatorIcE10deallocateEPcm
	nop
	leave
	.cfi_def_cfa 7, 8
	ret
	.cfi_endproc
.LFE5500:
	.size	_ZNSt16allocator_traitsISaIcEE10deallocateERS0_Pcm, .-_ZNSt16allocator_traitsISaIcEE10deallocateERS0_Pcm
	.section	.text._ZNSt16allocator_traitsISaIcEE8allocateERS0_m,"axG",@progbits,_ZNSt16allocator_traitsISaIcEE8allocateERS0_m,comdat
	.weak	_ZNSt16allocator_traitsISaIcEE8allocateERS0_m
	.type	_ZNSt16allocator_traitsISaIcEE8allocateERS0_m, @function
_ZNSt16allocator_traitsISaIcEE8allocateERS0_m:
.LFB5501:
	.cfi_startproc
	endbr64
	pushq	%rbp
	.cfi_def_cfa_offset 16
	.cfi_offset 6, -16
	movq	%rsp, %rbp
	.cfi_def_cfa_register 6
	subq	$16, %rsp
	movq	%rdi, -8(%rbp)
	movq	%rsi, -16(%rbp)
	movq	-16(%rbp), %rcx
	movq	-8(%rbp), %rax
	movl	$0, %edx
	movq	%rcx, %rsi
	movq	%rax, %rdi
	call	_ZN9__gnu_cxx13new_allocatorIcE8allocateEmPKv
	leave
	.cfi_def_cfa 7, 8
	ret
	.cfi_endproc
.LFE5501:
	.size	_ZNSt16allocator_traitsISaIcEE8allocateERS0_m, .-_ZNSt16allocator_traitsISaIcEE8allocateERS0_m
	.section	.text._ZSt3getILm1EJPNSt10filesystem7__cxx114path5_List5_ImplENS3_13_Impl_deleterEEERNSt13tuple_elementIXT_ESt5tupleIJDpT0_EEE4typeERSB_,"axG",@progbits,_ZSt3getILm1EJPNSt10filesystem7__cxx114path5_List5_ImplENS3_13_Impl_deleterEEERNSt13tuple_elementIXT_ESt5tupleIJDpT0_EEE4typeERSB_,comdat
	.weak	_ZSt3getILm1EJPNSt10filesystem7__cxx114path5_List5_ImplENS3_13_Impl_deleterEEERNSt13tuple_elementIXT_ESt5tupleIJDpT0_EEE4typeERSB_
	.type	_ZSt3getILm1EJPNSt10filesystem7__cxx114path5_List5_ImplENS3_13_Impl_deleterEEERNSt13tuple_elementIXT_ESt5tupleIJDpT0_EEE4typeERSB_, @function
_ZSt3getILm1EJPNSt10filesystem7__cxx114path5_List5_ImplENS3_13_Impl_deleterEEERNSt13tuple_elementIXT_ESt5tupleIJDpT0_EEE4typeERSB_:
.LFB5503:
	.cfi_startproc
	endbr64
	pushq	%rbp
	.cfi_def_cfa_offset 16
	.cfi_offset 6, -16
	movq	%rsp, %rbp
	.cfi_def_cfa_register 6
	subq	$16, %rsp
	movq	%rdi, -8(%rbp)
	movq	-8(%rbp), %rax
	movq	%rax, %rdi
	call	_ZSt12__get_helperILm1ENSt10filesystem7__cxx114path5_List13_Impl_deleterEJEERT0_RSt11_Tuple_implIXT_EJS5_DpT1_EE
	leave
	.cfi_def_cfa 7, 8
	ret
	.cfi_endproc
.LFE5503:
	.size	_ZSt3getILm1EJPNSt10filesystem7__cxx114path5_List5_ImplENS3_13_Impl_deleterEEERNSt13tuple_elementIXT_ESt5tupleIJDpT0_EEE4typeERSB_, .-_ZSt3getILm1EJPNSt10filesystem7__cxx114path5_List5_ImplENS3_13_Impl_deleterEEERNSt13tuple_elementIXT_ESt5tupleIJDpT0_EEE4typeERSB_
	.section	.text._ZNSt8_Rb_treeINSt7__cxx1112basic_stringIcSt11char_traitsIcESaIcEEESt4pairIKS5_St6vectorIfSaIfEEESt10_Select1stISB_ESt4lessIS5_ESaISB_EE6_M_endEv,"axG",@progbits,_ZNSt8_Rb_treeINSt7__cxx1112basic_stringIcSt11char_traitsIcESaIcEEESt4pairIKS5_St6vectorIfSaIfEEESt10_Select1stISB_ESt4lessIS5_ESaISB_EE6_M_endEv,comdat
	.align 2
	.weak	_ZNSt8_Rb_treeINSt7__cxx1112basic_stringIcSt11char_traitsIcESaIcEEESt4pairIKS5_St6vectorIfSaIfEEESt10_Select1stISB_ESt4lessIS5_ESaISB_EE6_M_endEv
	.type	_ZNSt8_Rb_treeINSt7__cxx1112basic_stringIcSt11char_traitsIcESaIcEEESt4pairIKS5_St6vectorIfSaIfEEESt10_Select1stISB_ESt4lessIS5_ESaISB_EE6_M_endEv, @function
_ZNSt8_Rb_treeINSt7__cxx1112basic_stringIcSt11char_traitsIcESaIcEEESt4pairIKS5_St6vectorIfSaIfEEESt10_Select1stISB_ESt4lessIS5_ESaISB_EE6_M_endEv:
.LFB5537:
	.cfi_startproc
	endbr64
	pushq	%rbp
	.cfi_def_cfa_offset 16
	.cfi_offset 6, -16
	movq	%rsp, %rbp
	.cfi_def_cfa_register 6
	movq	%rdi, -8(%rbp)
	movq	-8(%rbp), %rax
	addq	$8, %rax
	popq	%rbp
	.cfi_def_cfa 7, 8
	ret
	.cfi_endproc
.LFE5537:
	.size	_ZNSt8_Rb_treeINSt7__cxx1112basic_stringIcSt11char_traitsIcESaIcEEESt4pairIKS5_St6vectorIfSaIfEEESt10_Select1stISB_ESt4lessIS5_ESaISB_EE6_M_endEv, .-_ZNSt8_Rb_treeINSt7__cxx1112basic_stringIcSt11char_traitsIcESaIcEEESt4pairIKS5_St6vectorIfSaIfEEESt10_Select1stISB_ESt4lessIS5_ESaISB_EE6_M_endEv
	.section	.text._ZNSt8_Rb_treeINSt7__cxx1112basic_stringIcSt11char_traitsIcESaIcEEESt4pairIKS5_St6vectorIfSaIfEEESt10_Select1stISB_ESt4lessIS5_ESaISB_EE14_M_lower_boundEPSt13_Rb_tree_nodeISB_EPSt18_Rb_tree_node_baseRS7_,"axG",@progbits,_ZNSt8_Rb_treeINSt7__cxx1112basic_stringIcSt11char_traitsIcESaIcEEESt4pairIKS5_St6vectorIfSaIfEEESt10_Select1stISB_ESt4lessIS5_ESaISB_EE14_M_lower_boundEPSt13_Rb_tree_nodeISB_EPSt18_Rb_tree_node_baseRS7_,comdat
	.align 2
	.weak	_ZNSt8_Rb_treeINSt7__cxx1112basic_stringIcSt11char_traitsIcESaIcEEESt4pairIKS5_St6vectorIfSaIfEEESt10_Select1stISB_ESt4lessIS5_ESaISB_EE14_M_lower_boundEPSt13_Rb_tree_nodeISB_EPSt18_Rb_tree_node_baseRS7_
	.type	_ZNSt8_Rb_treeINSt7__cxx1112basic_stringIcSt11char_traitsIcESaIcEEESt4pairIKS5_St6vectorIfSaIfEEESt10_Select1stISB_ESt4lessIS5_ESaISB_EE14_M_lower_boundEPSt13_Rb_tree_nodeISB_EPSt18_Rb_tree_node_baseRS7_, @function
_ZNSt8_Rb_treeINSt7__cxx1112basic_stringIcSt11char_traitsIcESaIcEEESt4pairIKS5_St6vectorIfSaIfEEESt10_Select1stISB_ESt4lessIS5_ESaISB_EE14_M_lower_boundEPSt13_Rb_tree_nodeISB_EPSt18_Rb_tree_node_baseRS7_:
.LFB5538:
	.cfi_startproc
	endbr64
	pushq	%rbp
	.cfi_def_cfa_offset 16
	.cfi_offset 6, -16
	movq	%rsp, %rbp
	.cfi_def_cfa_register 6
	pushq	%rbx
	subq	$56, %rsp
	.cfi_offset 3, -24
	movq	%rdi, -40(%rbp)
	movq	%rsi, -48(%rbp)
	movq	%rdx, -56(%rbp)
	movq	%rcx, -64(%rbp)
	movq	%fs:40, %rax
	movq	%rax, -24(%rbp)
	xorl	%eax, %eax
	jmp	.L321
.L323:
	movq	-40(%rbp), %rbx
	movq	-48(%rbp), %rax
	movq	%rax, %rdi
	call	_ZNSt8_Rb_treeINSt7__cxx1112basic_stringIcSt11char_traitsIcESaIcEEESt4pairIKS5_St6vectorIfSaIfEEESt10_Select1stISB_ESt4lessIS5_ESaISB_EE6_S_keyEPKSt13_Rb_tree_nodeISB_E
	movq	%rax, %rcx
	movq	-64(%rbp), %rax
	movq	%rax, %rdx
	movq	%rcx, %rsi
	movq	%rbx, %rdi
	call	_ZNKSt4lessINSt7__cxx1112basic_stringIcSt11char_traitsIcESaIcEEEEclERKS5_S8_
	xorl	$1, %eax
	testb	%al, %al
	je	.L322
	movq	-48(%rbp), %rax
	movq	%rax, -56(%rbp)
	movq	-48(%rbp), %rax
	movq	%rax, %rdi
	call	_ZNSt8_Rb_treeINSt7__cxx1112basic_stringIcSt11char_traitsIcESaIcEEESt4pairIKS5_St6vectorIfSaIfEEESt10_Select1stISB_ESt4lessIS5_ESaISB_EE7_S_leftEPSt18_Rb_tree_node_base
	movq	%rax, -48(%rbp)
	jmp	.L321
.L322:
	movq	-48(%rbp), %rax
	movq	%rax, %rdi
	call	_ZNSt8_Rb_treeINSt7__cxx1112basic_stringIcSt11char_traitsIcESaIcEEESt4pairIKS5_St6vectorIfSaIfEEESt10_Select1stISB_ESt4lessIS5_ESaISB_EE8_S_rightEPSt18_Rb_tree_node_base
	movq	%rax, -48(%rbp)
.L321:
	cmpq	$0, -48(%rbp)
	jne	.L323
	movq	-56(%rbp), %rdx
	leaq	-32(%rbp), %rax
	movq	%rdx, %rsi
	movq	%rax, %rdi
	call	_ZNSt17_Rb_tree_iteratorISt4pairIKNSt7__cxx1112basic_stringIcSt11char_traitsIcESaIcEEESt6vectorIfSaIfEEEEC1EPSt18_Rb_tree_node_base
	movq	-32(%rbp), %rax
	movq	-24(%rbp), %rdx
	subq	%fs:40, %rdx
	je	.L325
	call	__stack_chk_fail@PLT
.L325:
	movq	-8(%rbp), %rbx
	leave
	.cfi_def_cfa 7, 8
	ret
	.cfi_endproc
.LFE5538:
	.size	_ZNSt8_Rb_treeINSt7__cxx1112basic_stringIcSt11char_traitsIcESaIcEEESt4pairIKS5_St6vectorIfSaIfEEESt10_Select1stISB_ESt4lessIS5_ESaISB_EE14_M_lower_boundEPSt13_Rb_tree_nodeISB_EPSt18_Rb_tree_node_baseRS7_, .-_ZNSt8_Rb_treeINSt7__cxx1112basic_stringIcSt11char_traitsIcESaIcEEESt4pairIKS5_St6vectorIfSaIfEEESt10_Select1stISB_ESt4lessIS5_ESaISB_EE14_M_lower_boundEPSt13_Rb_tree_nodeISB_EPSt18_Rb_tree_node_baseRS7_
	.section	.text._ZNSt8_Rb_treeINSt7__cxx1112basic_stringIcSt11char_traitsIcESaIcEEESt4pairIKS5_St6vectorIfSaIfEEESt10_Select1stISB_ESt4lessIS5_ESaISB_EE6_S_keyEPKSt18_Rb_tree_node_base,"axG",@progbits,_ZNSt8_Rb_treeINSt7__cxx1112basic_stringIcSt11char_traitsIcESaIcEEESt4pairIKS5_St6vectorIfSaIfEEESt10_Select1stISB_ESt4lessIS5_ESaISB_EE6_S_keyEPKSt18_Rb_tree_node_base,comdat
	.weak	_ZNSt8_Rb_treeINSt7__cxx1112basic_stringIcSt11char_traitsIcESaIcEEESt4pairIKS5_St6vectorIfSaIfEEESt10_Select1stISB_ESt4lessIS5_ESaISB_EE6_S_keyEPKSt18_Rb_tree_node_base
	.type	_ZNSt8_Rb_treeINSt7__cxx1112basic_stringIcSt11char_traitsIcESaIcEEESt4pairIKS5_St6vectorIfSaIfEEESt10_Select1stISB_ESt4lessIS5_ESaISB_EE6_S_keyEPKSt18_Rb_tree_node_base, @function
_ZNSt8_Rb_treeINSt7__cxx1112basic_stringIcSt11char_traitsIcESaIcEEESt4pairIKS5_St6vectorIfSaIfEEESt10_Select1stISB_ESt4lessIS5_ESaISB_EE6_S_keyEPKSt18_Rb_tree_node_base:
.LFB5539:
	.cfi_startproc
	endbr64
	pushq	%rbp
	.cfi_def_cfa_offset 16
	.cfi_offset 6, -16
	movq	%rsp, %rbp
	.cfi_def_cfa_register 6
	subq	$16, %rsp
	movq	%rdi, -8(%rbp)
	movq	-8(%rbp), %rax
	movq	%rax, %rdi
	call	_ZNSt8_Rb_treeINSt7__cxx1112basic_stringIcSt11char_traitsIcESaIcEEESt4pairIKS5_St6vectorIfSaIfEEESt10_Select1stISB_ESt4lessIS5_ESaISB_EE6_S_keyEPKSt13_Rb_tree_nodeISB_E
	leave
	.cfi_def_cfa 7, 8
	ret
	.cfi_endproc
.LFE5539:
	.size	_ZNSt8_Rb_treeINSt7__cxx1112basic_stringIcSt11char_traitsIcESaIcEEESt4pairIKS5_St6vectorIfSaIfEEESt10_Select1stISB_ESt4lessIS5_ESaISB_EE6_S_keyEPKSt18_Rb_tree_node_base, .-_ZNSt8_Rb_treeINSt7__cxx1112basic_stringIcSt11char_traitsIcESaIcEEESt4pairIKS5_St6vectorIfSaIfEEESt10_Select1stISB_ESt4lessIS5_ESaISB_EE6_S_keyEPKSt18_Rb_tree_node_base
	.section	.text._ZNSt17_Rb_tree_iteratorISt4pairIKNSt7__cxx1112basic_stringIcSt11char_traitsIcESaIcEEESt6vectorIfSaIfEEEEC2EPSt18_Rb_tree_node_base,"axG",@progbits,_ZNSt17_Rb_tree_iteratorISt4pairIKNSt7__cxx1112basic_stringIcSt11char_traitsIcESaIcEEESt6vectorIfSaIfEEEEC5EPSt18_Rb_tree_node_base,comdat
	.align 2
	.weak	_ZNSt17_Rb_tree_iteratorISt4pairIKNSt7__cxx1112basic_stringIcSt11char_traitsIcESaIcEEESt6vectorIfSaIfEEEEC2EPSt18_Rb_tree_node_base
	.type	_ZNSt17_Rb_tree_iteratorISt4pairIKNSt7__cxx1112basic_stringIcSt11char_traitsIcESaIcEEESt6vectorIfSaIfEEEEC2EPSt18_Rb_tree_node_base, @function
_ZNSt17_Rb_tree_iteratorISt4pairIKNSt7__cxx1112basic_stringIcSt11char_traitsIcESaIcEEESt6vectorIfSaIfEEEEC2EPSt18_Rb_tree_node_base:
.LFB5541:
	.cfi_startproc
	endbr64
	pushq	%rbp
	.cfi_def_cfa_offset 16
	.cfi_offset 6, -16
	movq	%rsp, %rbp
	.cfi_def_cfa_register 6
	movq	%rdi, -8(%rbp)
	movq	%rsi, -16(%rbp)
	movq	-8(%rbp), %rax
	movq	-16(%rbp), %rdx
	movq	%rdx, (%rax)
	nop
	popq	%rbp
	.cfi_def_cfa 7, 8
	ret
	.cfi_endproc
.LFE5541:
	.size	_ZNSt17_Rb_tree_iteratorISt4pairIKNSt7__cxx1112basic_stringIcSt11char_traitsIcESaIcEEESt6vectorIfSaIfEEEEC2EPSt18_Rb_tree_node_base, .-_ZNSt17_Rb_tree_iteratorISt4pairIKNSt7__cxx1112basic_stringIcSt11char_traitsIcESaIcEEESt6vectorIfSaIfEEEEC2EPSt18_Rb_tree_node_base
	.weak	_ZNSt17_Rb_tree_iteratorISt4pairIKNSt7__cxx1112basic_stringIcSt11char_traitsIcESaIcEEESt6vectorIfSaIfEEEEC1EPSt18_Rb_tree_node_base
	.set	_ZNSt17_Rb_tree_iteratorISt4pairIKNSt7__cxx1112basic_stringIcSt11char_traitsIcESaIcEEESt6vectorIfSaIfEEEEC1EPSt18_Rb_tree_node_base,_ZNSt17_Rb_tree_iteratorISt4pairIKNSt7__cxx1112basic_stringIcSt11char_traitsIcESaIcEEESt6vectorIfSaIfEEEEC2EPSt18_Rb_tree_node_base
	.section	.text._ZN9__gnu_cxx16__aligned_membufISt4pairIKNSt7__cxx1112basic_stringIcSt11char_traitsIcESaIcEEESt6vectorIfSaIfEEEE6_M_ptrEv,"axG",@progbits,_ZN9__gnu_cxx16__aligned_membufISt4pairIKNSt7__cxx1112basic_stringIcSt11char_traitsIcESaIcEEESt6vectorIfSaIfEEEE6_M_ptrEv,comdat
	.align 2
	.weak	_ZN9__gnu_cxx16__aligned_membufISt4pairIKNSt7__cxx1112basic_stringIcSt11char_traitsIcESaIcEEESt6vectorIfSaIfEEEE6_M_ptrEv
	.type	_ZN9__gnu_cxx16__aligned_membufISt4pairIKNSt7__cxx1112basic_stringIcSt11char_traitsIcESaIcEEESt6vectorIfSaIfEEEE6_M_ptrEv, @function
_ZN9__gnu_cxx16__aligned_membufISt4pairIKNSt7__cxx1112basic_stringIcSt11char_traitsIcESaIcEEESt6vectorIfSaIfEEEE6_M_ptrEv:
.LFB5543:
	.cfi_startproc
	endbr64
	pushq	%rbp
	.cfi_def_cfa_offset 16
	.cfi_offset 6, -16
	movq	%rsp, %rbp
	.cfi_def_cfa_register 6
	subq	$16, %rsp
	movq	%rdi, -8(%rbp)
	movq	-8(%rbp), %rax
	movq	%rax, %rdi
	call	_ZN9__gnu_cxx16__aligned_membufISt4pairIKNSt7__cxx1112basic_stringIcSt11char_traitsIcESaIcEEESt6vectorIfSaIfEEEE7_M_addrEv
	leave
	.cfi_def_cfa 7, 8
	ret
	.cfi_endproc
.LFE5543:
	.size	_ZN9__gnu_cxx16__aligned_membufISt4pairIKNSt7__cxx1112basic_stringIcSt11char_traitsIcESaIcEEESt6vectorIfSaIfEEEE6_M_ptrEv, .-_ZN9__gnu_cxx16__aligned_membufISt4pairIKNSt7__cxx1112basic_stringIcSt11char_traitsIcESaIcEEESt6vectorIfSaIfEEEE6_M_ptrEv
	.section	.text._ZNSt8_Rb_treeINSt7__cxx1112basic_stringIcSt11char_traitsIcESaIcEEESt4pairIKS5_St6vectorIfSaIfEEESt10_Select1stISB_ESt4lessIS5_ESaISB_EE11lower_boundERS7_,"axG",@progbits,_ZNSt8_Rb_treeINSt7__cxx1112basic_stringIcSt11char_traitsIcESaIcEEESt4pairIKS5_St6vectorIfSaIfEEESt10_Select1stISB_ESt4lessIS5_ESaISB_EE11lower_boundERS7_,comdat
	.align 2
	.weak	_ZNSt8_Rb_treeINSt7__cxx1112basic_stringIcSt11char_traitsIcESaIcEEESt4pairIKS5_St6vectorIfSaIfEEESt10_Select1stISB_ESt4lessIS5_ESaISB_EE11lower_boundERS7_
	.type	_ZNSt8_Rb_treeINSt7__cxx1112basic_stringIcSt11char_traitsIcESaIcEEESt4pairIKS5_St6vectorIfSaIfEEESt10_Select1stISB_ESt4lessIS5_ESaISB_EE11lower_boundERS7_, @function
_ZNSt8_Rb_treeINSt7__cxx1112basic_stringIcSt11char_traitsIcESaIcEEESt4pairIKS5_St6vectorIfSaIfEEESt10_Select1stISB_ESt4lessIS5_ESaISB_EE11lower_boundERS7_:
.LFB5544:
	.cfi_startproc
	endbr64
	pushq	%rbp
	.cfi_def_cfa_offset 16
	.cfi_offset 6, -16
	movq	%rsp, %rbp
	.cfi_def_cfa_register 6
	pushq	%rbx
	subq	$24, %rsp
	.cfi_offset 3, -24
	movq	%rdi, -24(%rbp)
	movq	%rsi, -32(%rbp)
	movq	-24(%rbp), %rax
	movq	%rax, %rdi
	call	_ZNSt8_Rb_treeINSt7__cxx1112basic_stringIcSt11char_traitsIcESaIcEEESt4pairIKS5_St6vectorIfSaIfEEESt10_Select1stISB_ESt4lessIS5_ESaISB_EE6_M_endEv
	movq	%rax, %rbx
	movq	-24(%rbp), %rax
	movq	%rax, %rdi
	call	_ZNSt8_Rb_treeINSt7__cxx1112basic_stringIcSt11char_traitsIcESaIcEEESt4pairIKS5_St6vectorIfSaIfEEESt10_Select1stISB_ESt4lessIS5_ESaISB_EE8_M_beginEv
	movq	%rax, %rsi
	movq	-32(%rbp), %rdx
	movq	-24(%rbp), %rax
	movq	%rdx, %rcx
	movq	%rbx, %rdx
	movq	%rax, %rdi
	call	_ZNSt8_Rb_treeINSt7__cxx1112basic_stringIcSt11char_traitsIcESaIcEEESt4pairIKS5_St6vectorIfSaIfEEESt10_Select1stISB_ESt4lessIS5_ESaISB_EE14_M_lower_boundEPSt13_Rb_tree_nodeISB_EPSt18_Rb_tree_node_baseRS7_
	movq	-8(%rbp), %rbx
	leave
	.cfi_def_cfa 7, 8
	ret
	.cfi_endproc
.LFE5544:
	.size	_ZNSt8_Rb_treeINSt7__cxx1112basic_stringIcSt11char_traitsIcESaIcEEESt4pairIKS5_St6vectorIfSaIfEEESt10_Select1stISB_ESt4lessIS5_ESaISB_EE11lower_boundERS7_, .-_ZNSt8_Rb_treeINSt7__cxx1112basic_stringIcSt11char_traitsIcESaIcEEESt4pairIKS5_St6vectorIfSaIfEEESt10_Select1stISB_ESt4lessIS5_ESaISB_EE11lower_boundERS7_
	.section	.text._ZNKSt8_Rb_treeINSt7__cxx1112basic_stringIcSt11char_traitsIcESaIcEEESt4pairIKS5_St6vectorIfSaIfEEESt10_Select1stISB_ESt4lessIS5_ESaISB_EE8key_compEv,"axG",@progbits,_ZNKSt8_Rb_treeINSt7__cxx1112basic_stringIcSt11char_traitsIcESaIcEEESt4pairIKS5_St6vectorIfSaIfEEESt10_Select1stISB_ESt4lessIS5_ESaISB_EE8key_compEv,comdat
	.align 2
	.weak	_ZNKSt8_Rb_treeINSt7__cxx1112basic_stringIcSt11char_traitsIcESaIcEEESt4pairIKS5_St6vectorIfSaIfEEESt10_Select1stISB_ESt4lessIS5_ESaISB_EE8key_compEv
	.type	_ZNKSt8_Rb_treeINSt7__cxx1112basic_stringIcSt11char_traitsIcESaIcEEESt4pairIKS5_St6vectorIfSaIfEEESt10_Select1stISB_ESt4lessIS5_ESaISB_EE8key_compEv, @function
_ZNKSt8_Rb_treeINSt7__cxx1112basic_stringIcSt11char_traitsIcESaIcEEESt4pairIKS5_St6vectorIfSaIfEEESt10_Select1stISB_ESt4lessIS5_ESaISB_EE8key_compEv:
.LFB5545:
	.cfi_startproc
	endbr64
	pushq	%rbp
	.cfi_def_cfa_offset 16
	.cfi_offset 6, -16
	movq	%rsp, %rbp
	.cfi_def_cfa_register 6
	movq	%rdi, -8(%rbp)
	nop
	popq	%rbp
	.cfi_def_cfa 7, 8
	ret
	.cfi_endproc
.LFE5545:
	.size	_ZNKSt8_Rb_treeINSt7__cxx1112basic_stringIcSt11char_traitsIcESaIcEEESt4pairIKS5_St6vectorIfSaIfEEESt10_Select1stISB_ESt4lessIS5_ESaISB_EE8key_compEv, .-_ZNKSt8_Rb_treeINSt7__cxx1112basic_stringIcSt11char_traitsIcESaIcEEESt4pairIKS5_St6vectorIfSaIfEEESt10_Select1stISB_ESt4lessIS5_ESaISB_EE8key_compEv
	.section	.text._ZStltIcSt11char_traitsIcESaIcEEbRKNSt7__cxx1112basic_stringIT_T0_T1_EESA_,"axG",@progbits,_ZStltIcSt11char_traitsIcESaIcEEbRKNSt7__cxx1112basic_stringIT_T0_T1_EESA_,comdat
	.weak	_ZStltIcSt11char_traitsIcESaIcEEbRKNSt7__cxx1112basic_stringIT_T0_T1_EESA_
	.type	_ZStltIcSt11char_traitsIcESaIcEEbRKNSt7__cxx1112basic_stringIT_T0_T1_EESA_, @function
_ZStltIcSt11char_traitsIcESaIcEEbRKNSt7__cxx1112basic_stringIT_T0_T1_EESA_:
.LFB5546:
	.cfi_startproc
	.cfi_personality 0x9b,DW.ref.__gxx_personality_v0
	.cfi_lsda 0x1b,.LLSDA5546
	endbr64
	pushq	%rbp
	.cfi_def_cfa_offset 16
	.cfi_offset 6, -16
	movq	%rsp, %rbp
	.cfi_def_cfa_register 6
	subq	$16, %rsp
	movq	%rdi, -8(%rbp)
	movq	%rsi, -16(%rbp)
	movq	-16(%rbp), %rdx
	movq	-8(%rbp), %rax
	movq	%rdx, %rsi
	movq	%rax, %rdi
	call	_ZNKSt7__cxx1112basic_stringIcSt11char_traitsIcESaIcEE7compareERKS4_@PLT
	shrl	$31, %eax
	leave
	.cfi_def_cfa 7, 8
	ret
	.cfi_endproc
.LFE5546:
	.section	.gcc_except_table
.LLSDA5546:
	.byte	0xff
	.byte	0xff
	.byte	0x1
	.uleb128 .LLSDACSE5546-.LLSDACSB5546
.LLSDACSB5546:
.LLSDACSE5546:
	.section	.text._ZStltIcSt11char_traitsIcESaIcEEbRKNSt7__cxx1112basic_stringIT_T0_T1_EESA_,"axG",@progbits,_ZStltIcSt11char_traitsIcESaIcEEbRKNSt7__cxx1112basic_stringIT_T0_T1_EESA_,comdat
	.size	_ZStltIcSt11char_traitsIcESaIcEEbRKNSt7__cxx1112basic_stringIT_T0_T1_EESA_, .-_ZStltIcSt11char_traitsIcESaIcEEbRKNSt7__cxx1112basic_stringIT_T0_T1_EESA_
	.section	.text._ZNSt11_Tuple_implILm0EJRKNSt7__cxx1112basic_stringIcSt11char_traitsIcESaIcEEEEEC2ES7_,"axG",@progbits,_ZNSt11_Tuple_implILm0EJRKNSt7__cxx1112basic_stringIcSt11char_traitsIcESaIcEEEEEC5ES7_,comdat
	.align 2
	.weak	_ZNSt11_Tuple_implILm0EJRKNSt7__cxx1112basic_stringIcSt11char_traitsIcESaIcEEEEEC2ES7_
	.type	_ZNSt11_Tuple_implILm0EJRKNSt7__cxx1112basic_stringIcSt11char_traitsIcESaIcEEEEEC2ES7_, @function
_ZNSt11_Tuple_implILm0EJRKNSt7__cxx1112basic_stringIcSt11char_traitsIcESaIcEEEEEC2ES7_:
.LFB5548:
	.cfi_startproc
	endbr64
	pushq	%rbp
	.cfi_def_cfa_offset 16
	.cfi_offset 6, -16
	movq	%rsp, %rbp
	.cfi_def_cfa_register 6
	subq	$16, %rsp
	movq	%rdi, -8(%rbp)
	movq	%rsi, -16(%rbp)
	movq	-8(%rbp), %rax
	movq	-16(%rbp), %rdx
	movq	%rdx, %rsi
	movq	%rax, %rdi
	call	_ZNSt10_Head_baseILm0ERKNSt7__cxx1112basic_stringIcSt11char_traitsIcESaIcEEELb0EEC2ES7_
	nop
	leave
	.cfi_def_cfa 7, 8
	ret
	.cfi_endproc
.LFE5548:
	.size	_ZNSt11_Tuple_implILm0EJRKNSt7__cxx1112basic_stringIcSt11char_traitsIcESaIcEEEEEC2ES7_, .-_ZNSt11_Tuple_implILm0EJRKNSt7__cxx1112basic_stringIcSt11char_traitsIcESaIcEEEEEC2ES7_
	.weak	_ZNSt11_Tuple_implILm0EJRKNSt7__cxx1112basic_stringIcSt11char_traitsIcESaIcEEEEEC1ES7_
	.set	_ZNSt11_Tuple_implILm0EJRKNSt7__cxx1112basic_stringIcSt11char_traitsIcESaIcEEEEEC1ES7_,_ZNSt11_Tuple_implILm0EJRKNSt7__cxx1112basic_stringIcSt11char_traitsIcESaIcEEEEEC2ES7_
	.section	.text._ZSt7forwardIRKSt21piecewise_construct_tEOT_RNSt16remove_referenceIS3_E4typeE,"axG",@progbits,_ZSt7forwardIRKSt21piecewise_construct_tEOT_RNSt16remove_referenceIS3_E4typeE,comdat
	.weak	_ZSt7forwardIRKSt21piecewise_construct_tEOT_RNSt16remove_referenceIS3_E4typeE
	.type	_ZSt7forwardIRKSt21piecewise_construct_tEOT_RNSt16remove_referenceIS3_E4typeE, @function
_ZSt7forwardIRKSt21piecewise_construct_tEOT_RNSt16remove_referenceIS3_E4typeE:
.LFB5550:
	.cfi_startproc
	endbr64
	pushq	%rbp
	.cfi_def_cfa_offset 16
	.cfi_offset 6, -16
	movq	%rsp, %rbp
	.cfi_def_cfa_register 6
	movq	%rdi, -8(%rbp)
	movq	-8(%rbp), %rax
	popq	%rbp
	.cfi_def_cfa 7, 8
	ret
	.cfi_endproc
.LFE5550:
	.size	_ZSt7forwardIRKSt21piecewise_construct_tEOT_RNSt16remove_referenceIS3_E4typeE, .-_ZSt7forwardIRKSt21piecewise_construct_tEOT_RNSt16remove_referenceIS3_E4typeE
	.section	.text._ZSt7forwardISt5tupleIJRKNSt7__cxx1112basic_stringIcSt11char_traitsIcESaIcEEEEEEOT_RNSt16remove_referenceISA_E4typeE,"axG",@progbits,_ZSt7forwardISt5tupleIJRKNSt7__cxx1112basic_stringIcSt11char_traitsIcESaIcEEEEEEOT_RNSt16remove_referenceISA_E4typeE,comdat
	.weak	_ZSt7forwardISt5tupleIJRKNSt7__cxx1112basic_stringIcSt11char_traitsIcESaIcEEEEEEOT_RNSt16remove_referenceISA_E4typeE
	.type	_ZSt7forwardISt5tupleIJRKNSt7__cxx1112basic_stringIcSt11char_traitsIcESaIcEEEEEEOT_RNSt16remove_referenceISA_E4typeE, @function
_ZSt7forwardISt5tupleIJRKNSt7__cxx1112basic_stringIcSt11char_traitsIcESaIcEEEEEEOT_RNSt16remove_referenceISA_E4typeE:
.LFB5551:
	.cfi_startproc
	endbr64
	pushq	%rbp
	.cfi_def_cfa_offset 16
	.cfi_offset 6, -16
	movq	%rsp, %rbp
	.cfi_def_cfa_register 6
	movq	%rdi, -8(%rbp)
	movq	-8(%rbp), %rax
	popq	%rbp
	.cfi_def_cfa 7, 8
	ret
	.cfi_endproc
.LFE5551:
	.size	_ZSt7forwardISt5tupleIJRKNSt7__cxx1112basic_stringIcSt11char_traitsIcESaIcEEEEEEOT_RNSt16remove_referenceISA_E4typeE, .-_ZSt7forwardISt5tupleIJRKNSt7__cxx1112basic_stringIcSt11char_traitsIcESaIcEEEEEEOT_RNSt16remove_referenceISA_E4typeE
	.section	.text._ZSt7forwardISt5tupleIJEEEOT_RNSt16remove_referenceIS2_E4typeE,"axG",@progbits,_ZSt7forwardISt5tupleIJEEEOT_RNSt16remove_referenceIS2_E4typeE,comdat
	.weak	_ZSt7forwardISt5tupleIJEEEOT_RNSt16remove_referenceIS2_E4typeE
	.type	_ZSt7forwardISt5tupleIJEEEOT_RNSt16remove_referenceIS2_E4typeE, @function
_ZSt7forwardISt5tupleIJEEEOT_RNSt16remove_referenceIS2_E4typeE:
.LFB5552:
	.cfi_startproc
	endbr64
	pushq	%rbp
	.cfi_def_cfa_offset 16
	.cfi_offset 6, -16
	movq	%rsp, %rbp
	.cfi_def_cfa_register 6
	movq	%rdi, -8(%rbp)
	movq	-8(%rbp), %rax
	popq	%rbp
	.cfi_def_cfa 7, 8
	ret
	.cfi_endproc
.LFE5552:
	.size	_ZSt7forwardISt5tupleIJEEEOT_RNSt16remove_referenceIS2_E4typeE, .-_ZSt7forwardISt5tupleIJEEEOT_RNSt16remove_referenceIS2_E4typeE
	.section	.text._ZNSt8_Rb_treeINSt7__cxx1112basic_stringIcSt11char_traitsIcESaIcEEESt4pairIKS5_St6vectorIfSaIfEEESt10_Select1stISB_ESt4lessIS5_ESaISB_EE14_M_create_nodeIJRKSt21piecewise_construct_tSt5tupleIJRS7_EESM_IJEEEEEPSt13_Rb_tree_nodeISB_EDpOT_,"axG",@progbits,_ZNSt8_Rb_treeINSt7__cxx1112basic_stringIcSt11char_traitsIcESaIcEEESt4pairIKS5_St6vectorIfSaIfEEESt10_Select1stISB_ESt4lessIS5_ESaISB_EE14_M_create_nodeIJRKSt21piecewise_construct_tSt5tupleIJRS7_EESM_IJEEEEEPSt13_Rb_tree_nodeISB_EDpOT_,comdat
	.align 2
	.weak	_ZNSt8_Rb_treeINSt7__cxx1112basic_stringIcSt11char_traitsIcESaIcEEESt4pairIKS5_St6vectorIfSaIfEEESt10_Select1stISB_ESt4lessIS5_ESaISB_EE14_M_create_nodeIJRKSt21piecewise_construct_tSt5tupleIJRS7_EESM_IJEEEEEPSt13_Rb_tree_nodeISB_EDpOT_
	.type	_ZNSt8_Rb_treeINSt7__cxx1112basic_stringIcSt11char_traitsIcESaIcEEESt4pairIKS5_St6vectorIfSaIfEEESt10_Select1stISB_ESt4lessIS5_ESaISB_EE14_M_create_nodeIJRKSt21piecewise_construct_tSt5tupleIJRS7_EESM_IJEEEEEPSt13_Rb_tree_nodeISB_EDpOT_, @function
_ZNSt8_Rb_treeINSt7__cxx1112basic_stringIcSt11char_traitsIcESaIcEEESt4pairIKS5_St6vectorIfSaIfEEESt10_Select1stISB_ESt4lessIS5_ESaISB_EE14_M_create_nodeIJRKSt21piecewise_construct_tSt5tupleIJRS7_EESM_IJEEEEEPSt13_Rb_tree_nodeISB_EDpOT_:
.LFB5553:
	.cfi_startproc
	endbr64
	pushq	%rbp
	.cfi_def_cfa_offset 16
	.cfi_offset 6, -16
	movq	%rsp, %rbp
	.cfi_def_cfa_register 6
	pushq	%r12
	pushq	%rbx
	subq	$48, %rsp
	.cfi_offset 12, -24
	.cfi_offset 3, -32
	movq	%rdi, -40(%rbp)
	movq	%rsi, -48(%rbp)
	movq	%rdx, -56(%rbp)
	movq	%rcx, -64(%rbp)
	movq	-40(%rbp), %rax
	movq	%rax, %rdi
	call	_ZNSt8_Rb_treeINSt7__cxx1112basic_stringIcSt11char_traitsIcESaIcEEESt4pairIKS5_St6vectorIfSaIfEEESt10_Select1stISB_ESt4lessIS5_ESaISB_EE11_M_get_nodeEv
	movq	%rax, -24(%rbp)
	movq	-64(%rbp), %rax
	movq	%rax, %rdi
	call	_ZSt7forwardISt5tupleIJEEEOT_RNSt16remove_referenceIS2_E4typeE
	movq	%rax, %r12
	movq	-56(%rbp), %rax
	movq	%rax, %rdi
	call	_ZSt7forwardISt5tupleIJRKNSt7__cxx1112basic_stringIcSt11char_traitsIcESaIcEEEEEEOT_RNSt16remove_referenceISA_E4typeE
	movq	%rax, %rbx
	movq	-48(%rbp), %rax
	movq	%rax, %rdi
	call	_ZSt7forwardIRKSt21piecewise_construct_tEOT_RNSt16remove_referenceIS3_E4typeE
	movq	%rax, %rdx
	movq	-24(%rbp), %rsi
	movq	-40(%rbp), %rax
	movq	%r12, %r8
	movq	%rbx, %rcx
	movq	%rax, %rdi
	call	_ZNSt8_Rb_treeINSt7__cxx1112basic_stringIcSt11char_traitsIcESaIcEEESt4pairIKS5_St6vectorIfSaIfEEESt10_Select1stISB_ESt4lessIS5_ESaISB_EE17_M_construct_nodeIJRKSt21piecewise_construct_tSt5tupleIJRS7_EESM_IJEEEEEvPSt13_Rb_tree_nodeISB_EDpOT_
	movq	-24(%rbp), %rax
	addq	$48, %rsp
	popq	%rbx
	popq	%r12
	popq	%rbp
	.cfi_def_cfa 7, 8
	ret
	.cfi_endproc
.LFE5553:
	.size	_ZNSt8_Rb_treeINSt7__cxx1112basic_stringIcSt11char_traitsIcESaIcEEESt4pairIKS5_St6vectorIfSaIfEEESt10_Select1stISB_ESt4lessIS5_ESaISB_EE14_M_create_nodeIJRKSt21piecewise_construct_tSt5tupleIJRS7_EESM_IJEEEEEPSt13_Rb_tree_nodeISB_EDpOT_, .-_ZNSt8_Rb_treeINSt7__cxx1112basic_stringIcSt11char_traitsIcESaIcEEESt4pairIKS5_St6vectorIfSaIfEEESt10_Select1stISB_ESt4lessIS5_ESaISB_EE14_M_create_nodeIJRKSt21piecewise_construct_tSt5tupleIJRS7_EESM_IJEEEEEPSt13_Rb_tree_nodeISB_EDpOT_
	.section	.text._ZNSt8_Rb_treeINSt7__cxx1112basic_stringIcSt11char_traitsIcESaIcEEESt4pairIKS5_St6vectorIfSaIfEEESt10_Select1stISB_ESt4lessIS5_ESaISB_EE29_M_get_insert_hint_unique_posESt23_Rb_tree_const_iteratorISB_ERS7_,"axG",@progbits,_ZNSt8_Rb_treeINSt7__cxx1112basic_stringIcSt11char_traitsIcESaIcEEESt4pairIKS5_St6vectorIfSaIfEEESt10_Select1stISB_ESt4lessIS5_ESaISB_EE29_M_get_insert_hint_unique_posESt23_Rb_tree_const_iteratorISB_ERS7_,comdat
	.align 2
	.weak	_ZNSt8_Rb_treeINSt7__cxx1112basic_stringIcSt11char_traitsIcESaIcEEESt4pairIKS5_St6vectorIfSaIfEEESt10_Select1stISB_ESt4lessIS5_ESaISB_EE29_M_get_insert_hint_unique_posESt23_Rb_tree_const_iteratorISB_ERS7_
	.type	_ZNSt8_Rb_treeINSt7__cxx1112basic_stringIcSt11char_traitsIcESaIcEEESt4pairIKS5_St6vectorIfSaIfEEESt10_Select1stISB_ESt4lessIS5_ESaISB_EE29_M_get_insert_hint_unique_posESt23_Rb_tree_const_iteratorISB_ERS7_, @function
_ZNSt8_Rb_treeINSt7__cxx1112basic_stringIcSt11char_traitsIcESaIcEEESt4pairIKS5_St6vectorIfSaIfEEESt10_Select1stISB_ESt4lessIS5_ESaISB_EE29_M_get_insert_hint_unique_posESt23_Rb_tree_const_iteratorISB_ERS7_:
.LFB5554:
	.cfi_startproc
	endbr64
	pushq	%rbp
	.cfi_def_cfa_offset 16
	.cfi_offset 6, -16
	movq	%rsp, %rbp
	.cfi_def_cfa_register 6
	pushq	%rbx
	subq	$104, %rsp
	.cfi_offset 3, -24
	movq	%rdi, -88(%rbp)
	movq	%rsi, -96(%rbp)
	movq	%rdx, -104(%rbp)
	movq	%fs:40, %rax
	movq	%rax, -24(%rbp)
	xorl	%eax, %eax
	leaq	-96(%rbp), %rax
	movq	%rax, %rdi
	call	_ZNKSt23_Rb_tree_const_iteratorISt4pairIKNSt7__cxx1112basic_stringIcSt11char_traitsIcESaIcEEESt6vectorIfSaIfEEEE13_M_const_castEv
	movq	%rax, -72(%rbp)
	movq	-72(%rbp), %rbx
	movq	-88(%rbp), %rax
	movq	%rax, %rdi
	call	_ZNSt8_Rb_treeINSt7__cxx1112basic_stringIcSt11char_traitsIcESaIcEEESt4pairIKS5_St6vectorIfSaIfEEESt10_Select1stISB_ESt4lessIS5_ESaISB_EE6_M_endEv
	cmpq	%rax, %rbx
	sete	%al
	testb	%al, %al
	je	.L347
	movq	-88(%rbp), %rax
	movq	%rax, %rdi
	call	_ZNKSt8_Rb_treeINSt7__cxx1112basic_stringIcSt11char_traitsIcESaIcEEESt4pairIKS5_St6vectorIfSaIfEEESt10_Select1stISB_ESt4lessIS5_ESaISB_EE4sizeEv
	testq	%rax, %rax
	je	.L348
	movq	-88(%rbp), %rbx
	movq	-88(%rbp), %rax
	movq	%rax, %rdi
	call	_ZNSt8_Rb_treeINSt7__cxx1112basic_stringIcSt11char_traitsIcESaIcEEESt4pairIKS5_St6vectorIfSaIfEEESt10_Select1stISB_ESt4lessIS5_ESaISB_EE12_M_rightmostEv
	movq	(%rax), %rax
	movq	%rax, %rdi
	call	_ZNSt8_Rb_treeINSt7__cxx1112basic_stringIcSt11char_traitsIcESaIcEEESt4pairIKS5_St6vectorIfSaIfEEESt10_Select1stISB_ESt4lessIS5_ESaISB_EE6_S_keyEPKSt18_Rb_tree_node_base
	movq	%rax, %rcx
	movq	-104(%rbp), %rax
	movq	%rax, %rdx
	movq	%rcx, %rsi
	movq	%rbx, %rdi
	call	_ZNKSt4lessINSt7__cxx1112basic_stringIcSt11char_traitsIcESaIcEEEEclERKS5_S8_
	testb	%al, %al
	je	.L348
	movl	$1, %eax
	jmp	.L349
.L348:
	movl	$0, %eax
.L349:
	testb	%al, %al
	je	.L350
	movq	-88(%rbp), %rax
	movq	%rax, %rdi
	call	_ZNSt8_Rb_treeINSt7__cxx1112basic_stringIcSt11char_traitsIcESaIcEEESt4pairIKS5_St6vectorIfSaIfEEESt10_Select1stISB_ESt4lessIS5_ESaISB_EE12_M_rightmostEv
	movq	%rax, %rdx
	movq	$0, -56(%rbp)
	leaq	-56(%rbp), %rcx
	leaq	-48(%rbp), %rax
	movq	%rcx, %rsi
	movq	%rax, %rdi
	call	_ZNSt4pairIPSt18_Rb_tree_node_baseS1_EC1IRS1_Lb1EEERKS1_OT_
	movq	-48(%rbp), %rax
	movq	-40(%rbp), %rdx
	jmp	.L362
.L350:
	movq	-104(%rbp), %rdx
	movq	-88(%rbp), %rax
	movq	%rdx, %rsi
	movq	%rax, %rdi
	call	_ZNSt8_Rb_treeINSt7__cxx1112basic_stringIcSt11char_traitsIcESaIcEEESt4pairIKS5_St6vectorIfSaIfEEESt10_Select1stISB_ESt4lessIS5_ESaISB_EE24_M_get_insert_unique_posERS7_
	jmp	.L362
.L347:
	movq	-88(%rbp), %rbx
	movq	-72(%rbp), %rax
	movq	%rax, %rdi
	call	_ZNSt8_Rb_treeINSt7__cxx1112basic_stringIcSt11char_traitsIcESaIcEEESt4pairIKS5_St6vectorIfSaIfEEESt10_Select1stISB_ESt4lessIS5_ESaISB_EE6_S_keyEPKSt18_Rb_tree_node_base
	movq	%rax, %rdx
	movq	-104(%rbp), %rax
	movq	%rax, %rsi
	movq	%rbx, %rdi
	call	_ZNKSt4lessINSt7__cxx1112basic_stringIcSt11char_traitsIcESaIcEEEEclERKS5_S8_
	testb	%al, %al
	je	.L352
	movq	-72(%rbp), %rax
	movq	%rax, -64(%rbp)
	movq	-72(%rbp), %rbx
	movq	-88(%rbp), %rax
	movq	%rax, %rdi
	call	_ZNSt8_Rb_treeINSt7__cxx1112basic_stringIcSt11char_traitsIcESaIcEEESt4pairIKS5_St6vectorIfSaIfEEESt10_Select1stISB_ESt4lessIS5_ESaISB_EE11_M_leftmostEv
	movq	(%rax), %rax
	cmpq	%rax, %rbx
	sete	%al
	testb	%al, %al
	je	.L353
	movq	-88(%rbp), %rax
	movq	%rax, %rdi
	call	_ZNSt8_Rb_treeINSt7__cxx1112basic_stringIcSt11char_traitsIcESaIcEEESt4pairIKS5_St6vectorIfSaIfEEESt10_Select1stISB_ESt4lessIS5_ESaISB_EE11_M_leftmostEv
	movq	%rax, %rbx
	movq	-88(%rbp), %rax
	movq	%rax, %rdi
	call	_ZNSt8_Rb_treeINSt7__cxx1112basic_stringIcSt11char_traitsIcESaIcEEESt4pairIKS5_St6vectorIfSaIfEEESt10_Select1stISB_ESt4lessIS5_ESaISB_EE11_M_leftmostEv
	movq	%rax, %rcx
	leaq	-48(%rbp), %rax
	movq	%rbx, %rdx
	movq	%rcx, %rsi
	movq	%rax, %rdi
	call	_ZNSt4pairIPSt18_Rb_tree_node_baseS1_EC1IRS1_S4_Lb1EEEOT_OT0_
	movq	-48(%rbp), %rax
	movq	-40(%rbp), %rdx
	jmp	.L362
.L353:
	movq	-88(%rbp), %rbx
	leaq	-64(%rbp), %rax
	movq	%rax, %rdi
	call	_ZNSt17_Rb_tree_iteratorISt4pairIKNSt7__cxx1112basic_stringIcSt11char_traitsIcESaIcEEESt6vectorIfSaIfEEEEmmEv
	movq	(%rax), %rax
	movq	%rax, %rdi
	call	_ZNSt8_Rb_treeINSt7__cxx1112basic_stringIcSt11char_traitsIcESaIcEEESt4pairIKS5_St6vectorIfSaIfEEESt10_Select1stISB_ESt4lessIS5_ESaISB_EE6_S_keyEPKSt18_Rb_tree_node_base
	movq	%rax, %rcx
	movq	-104(%rbp), %rax
	movq	%rax, %rdx
	movq	%rcx, %rsi
	movq	%rbx, %rdi
	call	_ZNKSt4lessINSt7__cxx1112basic_stringIcSt11char_traitsIcESaIcEEEEclERKS5_S8_
	testb	%al, %al
	je	.L355
	movq	-64(%rbp), %rax
	movq	%rax, %rdi
	call	_ZNSt8_Rb_treeINSt7__cxx1112basic_stringIcSt11char_traitsIcESaIcEEESt4pairIKS5_St6vectorIfSaIfEEESt10_Select1stISB_ESt4lessIS5_ESaISB_EE8_S_rightEPSt18_Rb_tree_node_base
	testq	%rax, %rax
	sete	%al
	testb	%al, %al
	je	.L356
	movq	$0, -56(%rbp)
	leaq	-64(%rbp), %rdx
	leaq	-56(%rbp), %rcx
	leaq	-48(%rbp), %rax
	movq	%rcx, %rsi
	movq	%rax, %rdi
	call	_ZNSt4pairIPSt18_Rb_tree_node_baseS1_EC1IRS1_Lb1EEERKS1_OT_
	movq	-48(%rbp), %rax
	movq	-40(%rbp), %rdx
	jmp	.L362
.L356:
	leaq	-72(%rbp), %rdx
	leaq	-72(%rbp), %rcx
	leaq	-48(%rbp), %rax
	movq	%rcx, %rsi
	movq	%rax, %rdi
	call	_ZNSt4pairIPSt18_Rb_tree_node_baseS1_EC1IRS1_S4_Lb1EEEOT_OT0_
	movq	-48(%rbp), %rax
	movq	-40(%rbp), %rdx
	jmp	.L362
.L355:
	movq	-104(%rbp), %rdx
	movq	-88(%rbp), %rax
	movq	%rdx, %rsi
	movq	%rax, %rdi
	call	_ZNSt8_Rb_treeINSt7__cxx1112basic_stringIcSt11char_traitsIcESaIcEEESt4pairIKS5_St6vectorIfSaIfEEESt10_Select1stISB_ESt4lessIS5_ESaISB_EE24_M_get_insert_unique_posERS7_
	jmp	.L362
.L352:
	movq	-88(%rbp), %rbx
	movq	-72(%rbp), %rax
	movq	%rax, %rdi
	call	_ZNSt8_Rb_treeINSt7__cxx1112basic_stringIcSt11char_traitsIcESaIcEEESt4pairIKS5_St6vectorIfSaIfEEESt10_Select1stISB_ESt4lessIS5_ESaISB_EE6_S_keyEPKSt18_Rb_tree_node_base
	movq	%rax, %rcx
	movq	-104(%rbp), %rax
	movq	%rax, %rdx
	movq	%rcx, %rsi
	movq	%rbx, %rdi
	call	_ZNKSt4lessINSt7__cxx1112basic_stringIcSt11char_traitsIcESaIcEEEEclERKS5_S8_
	testb	%al, %al
	je	.L357
	movq	-72(%rbp), %rax
	movq	%rax, -64(%rbp)
	movq	-72(%rbp), %rbx
	movq	-88(%rbp), %rax
	movq	%rax, %rdi
	call	_ZNSt8_Rb_treeINSt7__cxx1112basic_stringIcSt11char_traitsIcESaIcEEESt4pairIKS5_St6vectorIfSaIfEEESt10_Select1stISB_ESt4lessIS5_ESaISB_EE12_M_rightmostEv
	movq	(%rax), %rax
	cmpq	%rax, %rbx
	sete	%al
	testb	%al, %al
	je	.L358
	movq	-88(%rbp), %rax
	movq	%rax, %rdi
	call	_ZNSt8_Rb_treeINSt7__cxx1112basic_stringIcSt11char_traitsIcESaIcEEESt4pairIKS5_St6vectorIfSaIfEEESt10_Select1stISB_ESt4lessIS5_ESaISB_EE12_M_rightmostEv
	movq	%rax, %rdx
	movq	$0, -56(%rbp)
	leaq	-56(%rbp), %rcx
	leaq	-48(%rbp), %rax
	movq	%rcx, %rsi
	movq	%rax, %rdi
	call	_ZNSt4pairIPSt18_Rb_tree_node_baseS1_EC1IRS1_Lb1EEERKS1_OT_
	movq	-48(%rbp), %rax
	movq	-40(%rbp), %rdx
	jmp	.L362
.L358:
	movq	-88(%rbp), %rbx
	leaq	-64(%rbp), %rax
	movq	%rax, %rdi
	call	_ZNSt17_Rb_tree_iteratorISt4pairIKNSt7__cxx1112basic_stringIcSt11char_traitsIcESaIcEEESt6vectorIfSaIfEEEEppEv
	movq	(%rax), %rax
	movq	%rax, %rdi
	call	_ZNSt8_Rb_treeINSt7__cxx1112basic_stringIcSt11char_traitsIcESaIcEEESt4pairIKS5_St6vectorIfSaIfEEESt10_Select1stISB_ESt4lessIS5_ESaISB_EE6_S_keyEPKSt18_Rb_tree_node_base
	movq	%rax, %rdx
	movq	-104(%rbp), %rax
	movq	%rax, %rsi
	movq	%rbx, %rdi
	call	_ZNKSt4lessINSt7__cxx1112basic_stringIcSt11char_traitsIcESaIcEEEEclERKS5_S8_
	testb	%al, %al
	je	.L360
	movq	-72(%rbp), %rax
	movq	%rax, %rdi
	call	_ZNSt8_Rb_treeINSt7__cxx1112basic_stringIcSt11char_traitsIcESaIcEEESt4pairIKS5_St6vectorIfSaIfEEESt10_Select1stISB_ESt4lessIS5_ESaISB_EE8_S_rightEPSt18_Rb_tree_node_base
	testq	%rax, %rax
	sete	%al
	testb	%al, %al
	je	.L361
	movq	$0, -56(%rbp)
	leaq	-72(%rbp), %rdx
	leaq	-56(%rbp), %rcx
	leaq	-48(%rbp), %rax
	movq	%rcx, %rsi
	movq	%rax, %rdi
	call	_ZNSt4pairIPSt18_Rb_tree_node_baseS1_EC1IRS1_Lb1EEERKS1_OT_
	movq	-48(%rbp), %rax
	movq	-40(%rbp), %rdx
	jmp	.L362
.L361:
	leaq	-64(%rbp), %rdx
	leaq	-64(%rbp), %rcx
	leaq	-48(%rbp), %rax
	movq	%rcx, %rsi
	movq	%rax, %rdi
	call	_ZNSt4pairIPSt18_Rb_tree_node_baseS1_EC1IRS1_S4_Lb1EEEOT_OT0_
	movq	-48(%rbp), %rax
	movq	-40(%rbp), %rdx
	jmp	.L362
.L360:
	movq	-104(%rbp), %rdx
	movq	-88(%rbp), %rax
	movq	%rdx, %rsi
	movq	%rax, %rdi
	call	_ZNSt8_Rb_treeINSt7__cxx1112basic_stringIcSt11char_traitsIcESaIcEEESt4pairIKS5_St6vectorIfSaIfEEESt10_Select1stISB_ESt4lessIS5_ESaISB_EE24_M_get_insert_unique_posERS7_
	jmp	.L362
.L357:
	movq	$0, -56(%rbp)
	leaq	-56(%rbp), %rdx
	leaq	-72(%rbp), %rcx
	leaq	-48(%rbp), %rax
	movq	%rcx, %rsi
	movq	%rax, %rdi
	call	_ZNSt4pairIPSt18_Rb_tree_node_baseS1_EC1IRS1_Lb1EEEOT_RKS1_
	movq	-48(%rbp), %rax
	movq	-40(%rbp), %rdx
.L362:
	movq	-24(%rbp), %rcx
	subq	%fs:40, %rcx
	je	.L363
	call	__stack_chk_fail@PLT
.L363:
	movq	-8(%rbp), %rbx
	leave
	.cfi_def_cfa 7, 8
	ret
	.cfi_endproc
.LFE5554:
	.size	_ZNSt8_Rb_treeINSt7__cxx1112basic_stringIcSt11char_traitsIcESaIcEEESt4pairIKS5_St6vectorIfSaIfEEESt10_Select1stISB_ESt4lessIS5_ESaISB_EE29_M_get_insert_hint_unique_posESt23_Rb_tree_const_iteratorISB_ERS7_, .-_ZNSt8_Rb_treeINSt7__cxx1112basic_stringIcSt11char_traitsIcESaIcEEESt4pairIKS5_St6vectorIfSaIfEEESt10_Select1stISB_ESt4lessIS5_ESaISB_EE29_M_get_insert_hint_unique_posESt23_Rb_tree_const_iteratorISB_ERS7_
	.section	.text._ZNSt8_Rb_treeINSt7__cxx1112basic_stringIcSt11char_traitsIcESaIcEEESt4pairIKS5_St6vectorIfSaIfEEESt10_Select1stISB_ESt4lessIS5_ESaISB_EE6_S_keyEPKSt13_Rb_tree_nodeISB_E,"axG",@progbits,_ZNSt8_Rb_treeINSt7__cxx1112basic_stringIcSt11char_traitsIcESaIcEEESt4pairIKS5_St6vectorIfSaIfEEESt10_Select1stISB_ESt4lessIS5_ESaISB_EE6_S_keyEPKSt13_Rb_tree_nodeISB_E,comdat
	.weak	_ZNSt8_Rb_treeINSt7__cxx1112basic_stringIcSt11char_traitsIcESaIcEEESt4pairIKS5_St6vectorIfSaIfEEESt10_Select1stISB_ESt4lessIS5_ESaISB_EE6_S_keyEPKSt13_Rb_tree_nodeISB_E
	.type	_ZNSt8_Rb_treeINSt7__cxx1112basic_stringIcSt11char_traitsIcESaIcEEESt4pairIKS5_St6vectorIfSaIfEEESt10_Select1stISB_ESt4lessIS5_ESaISB_EE6_S_keyEPKSt13_Rb_tree_nodeISB_E, @function
_ZNSt8_Rb_treeINSt7__cxx1112basic_stringIcSt11char_traitsIcESaIcEEESt4pairIKS5_St6vectorIfSaIfEEESt10_Select1stISB_ESt4lessIS5_ESaISB_EE6_S_keyEPKSt13_Rb_tree_nodeISB_E:
.LFB5571:
	.cfi_startproc
	endbr64
	pushq	%rbp
	.cfi_def_cfa_offset 16
	.cfi_offset 6, -16
	movq	%rsp, %rbp
	.cfi_def_cfa_register 6
	subq	$32, %rsp
	movq	%rdi, -24(%rbp)
	movq	%fs:40, %rax
	movq	%rax, -8(%rbp)
	xorl	%eax, %eax
	movq	-24(%rbp), %rax
	movq	%rax, %rdi
	call	_ZNKSt13_Rb_tree_nodeISt4pairIKNSt7__cxx1112basic_stringIcSt11char_traitsIcESaIcEEESt6vectorIfSaIfEEEE9_M_valptrEv
	movq	%rax, %rdx
	leaq	-9(%rbp), %rax
	movq	%rdx, %rsi
	movq	%rax, %rdi
	call	_ZNKSt10_Select1stISt4pairIKNSt7__cxx1112basic_stringIcSt11char_traitsIcESaIcEEESt6vectorIfSaIfEEEEclERKSB_
	movq	-8(%rbp), %rdx
	subq	%fs:40, %rdx
	je	.L366
	call	__stack_chk_fail@PLT
.L366:
	leave
	.cfi_def_cfa 7, 8
	ret
	.cfi_endproc
.LFE5571:
	.size	_ZNSt8_Rb_treeINSt7__cxx1112basic_stringIcSt11char_traitsIcESaIcEEESt4pairIKS5_St6vectorIfSaIfEEESt10_Select1stISB_ESt4lessIS5_ESaISB_EE6_S_keyEPKSt13_Rb_tree_nodeISB_E, .-_ZNSt8_Rb_treeINSt7__cxx1112basic_stringIcSt11char_traitsIcESaIcEEESt4pairIKS5_St6vectorIfSaIfEEESt10_Select1stISB_ESt4lessIS5_ESaISB_EE6_S_keyEPKSt13_Rb_tree_nodeISB_E
	.section	.text._ZNSt8_Rb_treeINSt7__cxx1112basic_stringIcSt11char_traitsIcESaIcEEESt4pairIKS5_St6vectorIfSaIfEEESt10_Select1stISB_ESt4lessIS5_ESaISB_EE14_M_insert_nodeEPSt18_Rb_tree_node_baseSJ_PSt13_Rb_tree_nodeISB_E,"axG",@progbits,_ZNSt8_Rb_treeINSt7__cxx1112basic_stringIcSt11char_traitsIcESaIcEEESt4pairIKS5_St6vectorIfSaIfEEESt10_Select1stISB_ESt4lessIS5_ESaISB_EE14_M_insert_nodeEPSt18_Rb_tree_node_baseSJ_PSt13_Rb_tree_nodeISB_E,comdat
	.align 2
	.weak	_ZNSt8_Rb_treeINSt7__cxx1112basic_stringIcSt11char_traitsIcESaIcEEESt4pairIKS5_St6vectorIfSaIfEEESt10_Select1stISB_ESt4lessIS5_ESaISB_EE14_M_insert_nodeEPSt18_Rb_tree_node_baseSJ_PSt13_Rb_tree_nodeISB_E
	.type	_ZNSt8_Rb_treeINSt7__cxx1112basic_stringIcSt11char_traitsIcESaIcEEESt4pairIKS5_St6vectorIfSaIfEEESt10_Select1stISB_ESt4lessIS5_ESaISB_EE14_M_insert_nodeEPSt18_Rb_tree_node_baseSJ_PSt13_Rb_tree_nodeISB_E, @function
_ZNSt8_Rb_treeINSt7__cxx1112basic_stringIcSt11char_traitsIcESaIcEEESt4pairIKS5_St6vectorIfSaIfEEESt10_Select1stISB_ESt4lessIS5_ESaISB_EE14_M_insert_nodeEPSt18_Rb_tree_node_baseSJ_PSt13_Rb_tree_nodeISB_E:
.LFB5573:
	.cfi_startproc
	endbr64
	pushq	%rbp
	.cfi_def_cfa_offset 16
	.cfi_offset 6, -16
	movq	%rsp, %rbp
	.cfi_def_cfa_register 6
	pushq	%r12
	pushq	%rbx
	subq	$64, %rsp
	.cfi_offset 12, -24
	.cfi_offset 3, -32
	movq	%rdi, -56(%rbp)
	movq	%rsi, -64(%rbp)
	movq	%rdx, -72(%rbp)
	movq	%rcx, -80(%rbp)
	movq	%fs:40, %rax
	movq	%rax, -24(%rbp)
	xorl	%eax, %eax
	cmpq	$0, -64(%rbp)
	jne	.L368
	movq	-56(%rbp), %rax
	movq	%rax, %rdi
	call	_ZNSt8_Rb_treeINSt7__cxx1112basic_stringIcSt11char_traitsIcESaIcEEESt4pairIKS5_St6vectorIfSaIfEEESt10_Select1stISB_ESt4lessIS5_ESaISB_EE6_M_endEv
	cmpq	%rax, -72(%rbp)
	je	.L368
	movq	-56(%rbp), %rbx
	movq	-72(%rbp), %rax
	movq	%rax, %rdi
	call	_ZNSt8_Rb_treeINSt7__cxx1112basic_stringIcSt11char_traitsIcESaIcEEESt4pairIKS5_St6vectorIfSaIfEEESt10_Select1stISB_ESt4lessIS5_ESaISB_EE6_S_keyEPKSt18_Rb_tree_node_base
	movq	%rax, %r12
	movq	-80(%rbp), %rax
	movq	%rax, %rdi
	call	_ZNSt8_Rb_treeINSt7__cxx1112basic_stringIcSt11char_traitsIcESaIcEEESt4pairIKS5_St6vectorIfSaIfEEESt10_Select1stISB_ESt4lessIS5_ESaISB_EE6_S_keyEPKSt13_Rb_tree_nodeISB_E
	movq	%r12, %rdx
	movq	%rax, %rsi
	movq	%rbx, %rdi
	call	_ZNKSt4lessINSt7__cxx1112basic_stringIcSt11char_traitsIcESaIcEEEEclERKS5_S8_
	testb	%al, %al
	je	.L369
.L368:
	movl	$1, %eax
	jmp	.L370
.L369:
	movl	$0, %eax
.L370:
	movb	%al, -33(%rbp)
	movq	-56(%rbp), %rax
	leaq	8(%rax), %rcx
	movzbl	-33(%rbp), %eax
	movq	-72(%rbp), %rdx
	movq	-80(%rbp), %rsi
	movl	%eax, %edi
	call	_ZSt29_Rb_tree_insert_and_rebalancebPSt18_Rb_tree_node_baseS0_RS_@PLT
	movq	-56(%rbp), %rax
	movq	40(%rax), %rax
	leaq	1(%rax), %rdx
	movq	-56(%rbp), %rax
	movq	%rdx, 40(%rax)
	movq	-80(%rbp), %rdx
	leaq	-32(%rbp), %rax
	movq	%rdx, %rsi
	movq	%rax, %rdi
	call	_ZNSt17_Rb_tree_iteratorISt4pairIKNSt7__cxx1112basic_stringIcSt11char_traitsIcESaIcEEESt6vectorIfSaIfEEEEC1EPSt18_Rb_tree_node_base
	movq	-32(%rbp), %rax
	movq	-24(%rbp), %rdx
	subq	%fs:40, %rdx
	je	.L372
	call	__stack_chk_fail@PLT
.L372:
	addq	$64, %rsp
	popq	%rbx
	popq	%r12
	popq	%rbp
	.cfi_def_cfa 7, 8
	ret
	.cfi_endproc
.LFE5573:
	.size	_ZNSt8_Rb_treeINSt7__cxx1112basic_stringIcSt11char_traitsIcESaIcEEESt4pairIKS5_St6vectorIfSaIfEEESt10_Select1stISB_ESt4lessIS5_ESaISB_EE14_M_insert_nodeEPSt18_Rb_tree_node_baseSJ_PSt13_Rb_tree_nodeISB_E, .-_ZNSt8_Rb_treeINSt7__cxx1112basic_stringIcSt11char_traitsIcESaIcEEESt4pairIKS5_St6vectorIfSaIfEEESt10_Select1stISB_ESt4lessIS5_ESaISB_EE14_M_insert_nodeEPSt18_Rb_tree_node_baseSJ_PSt13_Rb_tree_nodeISB_E
	.section	.text._ZNSt8_Rb_treeINSt7__cxx1112basic_stringIcSt11char_traitsIcESaIcEEESt4pairIKS5_St6vectorIfSaIfEEESt10_Select1stISB_ESt4lessIS5_ESaISB_EE12_M_drop_nodeEPSt13_Rb_tree_nodeISB_E,"axG",@progbits,_ZNSt8_Rb_treeINSt7__cxx1112basic_stringIcSt11char_traitsIcESaIcEEESt4pairIKS5_St6vectorIfSaIfEEESt10_Select1stISB_ESt4lessIS5_ESaISB_EE12_M_drop_nodeEPSt13_Rb_tree_nodeISB_E,comdat
	.align 2
	.weak	_ZNSt8_Rb_treeINSt7__cxx1112basic_stringIcSt11char_traitsIcESaIcEEESt4pairIKS5_St6vectorIfSaIfEEESt10_Select1stISB_ESt4lessIS5_ESaISB_EE12_M_drop_nodeEPSt13_Rb_tree_nodeISB_E
	.type	_ZNSt8_Rb_treeINSt7__cxx1112basic_stringIcSt11char_traitsIcESaIcEEESt4pairIKS5_St6vectorIfSaIfEEESt10_Select1stISB_ESt4lessIS5_ESaISB_EE12_M_drop_nodeEPSt13_Rb_tree_nodeISB_E, @function
_ZNSt8_Rb_treeINSt7__cxx1112basic_stringIcSt11char_traitsIcESaIcEEESt4pairIKS5_St6vectorIfSaIfEEESt10_Select1stISB_ESt4lessIS5_ESaISB_EE12_M_drop_nodeEPSt13_Rb_tree_nodeISB_E:
.LFB5574:
	.cfi_startproc
	endbr64
	pushq	%rbp
	.cfi_def_cfa_offset 16
	.cfi_offset 6, -16
	movq	%rsp, %rbp
	.cfi_def_cfa_register 6
	subq	$16, %rsp
	movq	%rdi, -8(%rbp)
	movq	%rsi, -16(%rbp)
	movq	-16(%rbp), %rdx
	movq	-8(%rbp), %rax
	movq	%rdx, %rsi
	movq	%rax, %rdi
	call	_ZNSt8_Rb_treeINSt7__cxx1112basic_stringIcSt11char_traitsIcESaIcEEESt4pairIKS5_St6vectorIfSaIfEEESt10_Select1stISB_ESt4lessIS5_ESaISB_EE15_M_destroy_nodeEPSt13_Rb_tree_nodeISB_E
	movq	-16(%rbp), %rdx
	movq	-8(%rbp), %rax
	movq	%rdx, %rsi
	movq	%rax, %rdi
	call	_ZNSt8_Rb_treeINSt7__cxx1112basic_stringIcSt11char_traitsIcESaIcEEESt4pairIKS5_St6vectorIfSaIfEEESt10_Select1stISB_ESt4lessIS5_ESaISB_EE11_M_put_nodeEPSt13_Rb_tree_nodeISB_E
	nop
	leave
	.cfi_def_cfa 7, 8
	ret
	.cfi_endproc
.LFE5574:
	.size	_ZNSt8_Rb_treeINSt7__cxx1112basic_stringIcSt11char_traitsIcESaIcEEESt4pairIKS5_St6vectorIfSaIfEEESt10_Select1stISB_ESt4lessIS5_ESaISB_EE12_M_drop_nodeEPSt13_Rb_tree_nodeISB_E, .-_ZNSt8_Rb_treeINSt7__cxx1112basic_stringIcSt11char_traitsIcESaIcEEESt4pairIKS5_St6vectorIfSaIfEEESt10_Select1stISB_ESt4lessIS5_ESaISB_EE12_M_drop_nodeEPSt13_Rb_tree_nodeISB_E
	.section	.text._ZNSt12_Vector_baseIfSaIfEE12_Vector_implC2ERKS0_,"axG",@progbits,_ZNSt12_Vector_baseIfSaIfEE12_Vector_implC5ERKS0_,comdat
	.align 2
	.weak	_ZNSt12_Vector_baseIfSaIfEE12_Vector_implC2ERKS0_
	.type	_ZNSt12_Vector_baseIfSaIfEE12_Vector_implC2ERKS0_, @function
_ZNSt12_Vector_baseIfSaIfEE12_Vector_implC2ERKS0_:
.LFB5576:
	.cfi_startproc
	endbr64
	pushq	%rbp
	.cfi_def_cfa_offset 16
	.cfi_offset 6, -16
	movq	%rsp, %rbp
	.cfi_def_cfa_register 6
	subq	$16, %rsp
	movq	%rdi, -8(%rbp)
	movq	%rsi, -16(%rbp)
	movq	-16(%rbp), %rdx
	movq	-8(%rbp), %rax
	movq	%rdx, %rsi
	movq	%rax, %rdi
	call	_ZNSaIfEC2ERKS_
	movq	-8(%rbp), %rax
	movq	%rax, %rdi
	call	_ZNSt12_Vector_baseIfSaIfEE17_Vector_impl_dataC2Ev
	nop
	leave
	.cfi_def_cfa 7, 8
	ret
	.cfi_endproc
.LFE5576:
	.size	_ZNSt12_Vector_baseIfSaIfEE12_Vector_implC2ERKS0_, .-_ZNSt12_Vector_baseIfSaIfEE12_Vector_implC2ERKS0_
	.weak	_ZNSt12_Vector_baseIfSaIfEE12_Vector_implC1ERKS0_
	.set	_ZNSt12_Vector_baseIfSaIfEE12_Vector_implC1ERKS0_,_ZNSt12_Vector_baseIfSaIfEE12_Vector_implC2ERKS0_
	.section	.text._ZNSt12_Vector_baseIfSaIfEE13_M_deallocateEPfm,"axG",@progbits,_ZNSt12_Vector_baseIfSaIfEE13_M_deallocateEPfm,comdat
	.align 2
	.weak	_ZNSt12_Vector_baseIfSaIfEE13_M_deallocateEPfm
	.type	_ZNSt12_Vector_baseIfSaIfEE13_M_deallocateEPfm, @function
_ZNSt12_Vector_baseIfSaIfEE13_M_deallocateEPfm:
.LFB5578:
	.cfi_startproc
	endbr64
	pushq	%rbp
	.cfi_def_cfa_offset 16
	.cfi_offset 6, -16
	movq	%rsp, %rbp
	.cfi_def_cfa_register 6
	subq	$32, %rsp
	movq	%rdi, -8(%rbp)
	movq	%rsi, -16(%rbp)
	movq	%rdx, -24(%rbp)
	cmpq	$0, -16(%rbp)
	je	.L377
	movq	-8(%rbp), %rax
	movq	-24(%rbp), %rdx
	movq	-16(%rbp), %rcx
	movq	%rcx, %rsi
	movq	%rax, %rdi
	call	_ZNSt16allocator_traitsISaIfEE10deallocateERS0_Pfm
.L377:
	nop
	leave
	.cfi_def_cfa 7, 8
	ret
	.cfi_endproc
.LFE5578:
	.size	_ZNSt12_Vector_baseIfSaIfEE13_M_deallocateEPfm, .-_ZNSt12_Vector_baseIfSaIfEE13_M_deallocateEPfm
	.section	.text._ZNKSt16initializer_listIfE4sizeEv,"axG",@progbits,_ZNKSt16initializer_listIfE4sizeEv,comdat
	.align 2
	.weak	_ZNKSt16initializer_listIfE4sizeEv
	.type	_ZNKSt16initializer_listIfE4sizeEv, @function
_ZNKSt16initializer_listIfE4sizeEv:
.LFB5579:
	.cfi_startproc
	endbr64
	pushq	%rbp
	.cfi_def_cfa_offset 16
	.cfi_offset 6, -16
	movq	%rsp, %rbp
	.cfi_def_cfa_register 6
	movq	%rdi, -8(%rbp)
	movq	-8(%rbp), %rax
	movq	8(%rax), %rax
	popq	%rbp
	.cfi_def_cfa 7, 8
	ret
	.cfi_endproc
.LFE5579:
	.size	_ZNKSt16initializer_listIfE4sizeEv, .-_ZNKSt16initializer_listIfE4sizeEv
	.section	.text._ZSt19__iterator_categoryIPKfENSt15iterator_traitsIT_E17iterator_categoryERKS3_,"axG",@progbits,_ZSt19__iterator_categoryIPKfENSt15iterator_traitsIT_E17iterator_categoryERKS3_,comdat
	.weak	_ZSt19__iterator_categoryIPKfENSt15iterator_traitsIT_E17iterator_categoryERKS3_
	.type	_ZSt19__iterator_categoryIPKfENSt15iterator_traitsIT_E17iterator_categoryERKS3_, @function
_ZSt19__iterator_categoryIPKfENSt15iterator_traitsIT_E17iterator_categoryERKS3_:
.LFB5580:
	.cfi_startproc
	endbr64
	pushq	%rbp
	.cfi_def_cfa_offset 16
	.cfi_offset 6, -16
	movq	%rsp, %rbp
	.cfi_def_cfa_register 6
	movq	%rdi, -8(%rbp)
	popq	%rbp
	.cfi_def_cfa 7, 8
	ret
	.cfi_endproc
.LFE5580:
	.size	_ZSt19__iterator_categoryIPKfENSt15iterator_traitsIT_E17iterator_categoryERKS3_, .-_ZSt19__iterator_categoryIPKfENSt15iterator_traitsIT_E17iterator_categoryERKS3_
	.section	.text._ZSt10__distanceIPKfENSt15iterator_traitsIT_E15difference_typeES3_S3_St26random_access_iterator_tag,"axG",@progbits,_ZSt10__distanceIPKfENSt15iterator_traitsIT_E15difference_typeES3_S3_St26random_access_iterator_tag,comdat
	.weak	_ZSt10__distanceIPKfENSt15iterator_traitsIT_E15difference_typeES3_S3_St26random_access_iterator_tag
	.type	_ZSt10__distanceIPKfENSt15iterator_traitsIT_E15difference_typeES3_S3_St26random_access_iterator_tag, @function
_ZSt10__distanceIPKfENSt15iterator_traitsIT_E15difference_typeES3_S3_St26random_access_iterator_tag:
.LFB5581:
	.cfi_startproc
	endbr64
	pushq	%rbp
	.cfi_def_cfa_offset 16
	.cfi_offset 6, -16
	movq	%rsp, %rbp
	.cfi_def_cfa_register 6
	movq	%rdi, -8(%rbp)
	movq	%rsi, -16(%rbp)
	movq	-16(%rbp), %rax
	subq	-8(%rbp), %rax
	sarq	$2, %rax
	popq	%rbp
	.cfi_def_cfa 7, 8
	ret
	.cfi_endproc
.LFE5581:
	.size	_ZSt10__distanceIPKfENSt15iterator_traitsIT_E15difference_typeES3_S3_St26random_access_iterator_tag, .-_ZSt10__distanceIPKfENSt15iterator_traitsIT_E15difference_typeES3_S3_St26random_access_iterator_tag
	.section	.text._ZNSt6vectorIfSaIfEE17_S_check_init_lenEmRKS0_,"axG",@progbits,_ZNSt6vectorIfSaIfEE17_S_check_init_lenEmRKS0_,comdat
	.weak	_ZNSt6vectorIfSaIfEE17_S_check_init_lenEmRKS0_
	.type	_ZNSt6vectorIfSaIfEE17_S_check_init_lenEmRKS0_, @function
_ZNSt6vectorIfSaIfEE17_S_check_init_lenEmRKS0_:
.LFB5582:
	.cfi_startproc
	endbr64
	pushq	%rbp
	.cfi_def_cfa_offset 16
	.cfi_offset 6, -16
	movq	%rsp, %rbp
	.cfi_def_cfa_register 6
	pushq	%rbx
	subq	$40, %rsp
	.cfi_offset 3, -24
	movq	%rdi, -40(%rbp)
	movq	%rsi, -48(%rbp)
	movq	%fs:40, %rax
	movq	%rax, -24(%rbp)
	xorl	%eax, %eax
	movq	-48(%rbp), %rdx
	leaq	-25(%rbp), %rax
	movq	%rdx, %rsi
	movq	%rax, %rdi
	call	_ZNSaIfEC1ERKS_
	leaq	-25(%rbp), %rax
	movq	%rax, %rdi
	call	_ZNSt6vectorIfSaIfEE11_S_max_sizeERKS0_
	cmpq	%rax, -40(%rbp)
	seta	%bl
	leaq	-25(%rbp), %rax
	movq	%rax, %rdi
	call	_ZNSaIfED1Ev
	testb	%bl, %bl
	je	.L385
	leaq	.LC12(%rip), %rax
	movq	%rax, %rdi
	call	_ZSt20__throw_length_errorPKc@PLT
.L385:
	movq	-40(%rbp), %rax
	movq	-24(%rbp), %rdx
	subq	%fs:40, %rdx
	je	.L387
	call	__stack_chk_fail@PLT
.L387:
	movq	-8(%rbp), %rbx
	leave
	.cfi_def_cfa 7, 8
	ret
	.cfi_endproc
.LFE5582:
	.size	_ZNSt6vectorIfSaIfEE17_S_check_init_lenEmRKS0_, .-_ZNSt6vectorIfSaIfEE17_S_check_init_lenEmRKS0_
	.section	.text._ZNSt12_Vector_baseIfSaIfEE11_M_allocateEm,"axG",@progbits,_ZNSt12_Vector_baseIfSaIfEE11_M_allocateEm,comdat
	.align 2
	.weak	_ZNSt12_Vector_baseIfSaIfEE11_M_allocateEm
	.type	_ZNSt12_Vector_baseIfSaIfEE11_M_allocateEm, @function
_ZNSt12_Vector_baseIfSaIfEE11_M_allocateEm:
.LFB5583:
	.cfi_startproc
	endbr64
	pushq	%rbp
	.cfi_def_cfa_offset 16
	.cfi_offset 6, -16
	movq	%rsp, %rbp
	.cfi_def_cfa_register 6
	subq	$16, %rsp
	movq	%rdi, -8(%rbp)
	movq	%rsi, -16(%rbp)
	cmpq	$0, -16(%rbp)
	je	.L389
	movq	-8(%rbp), %rax
	movq	-16(%rbp), %rdx
	movq	%rdx, %rsi
	movq	%rax, %rdi
	call	_ZNSt16allocator_traitsISaIfEE8allocateERS0_m
	jmp	.L391
.L389:
	movl	$0, %eax
.L391:
	leave
	.cfi_def_cfa 7, 8
	ret
	.cfi_endproc
.LFE5583:
	.size	_ZNSt12_Vector_baseIfSaIfEE11_M_allocateEm, .-_ZNSt12_Vector_baseIfSaIfEE11_M_allocateEm
	.section	.text._ZSt22__uninitialized_copy_aIPKfPffET0_T_S4_S3_RSaIT1_E,"axG",@progbits,_ZSt22__uninitialized_copy_aIPKfPffET0_T_S4_S3_RSaIT1_E,comdat
	.weak	_ZSt22__uninitialized_copy_aIPKfPffET0_T_S4_S3_RSaIT1_E
	.type	_ZSt22__uninitialized_copy_aIPKfPffET0_T_S4_S3_RSaIT1_E, @function
_ZSt22__uninitialized_copy_aIPKfPffET0_T_S4_S3_RSaIT1_E:
.LFB5584:
	.cfi_startproc
	endbr64
	pushq	%rbp
	.cfi_def_cfa_offset 16
	.cfi_offset 6, -16
	movq	%rsp, %rbp
	.cfi_def_cfa_register 6
	subq	$32, %rsp
	movq	%rdi, -8(%rbp)
	movq	%rsi, -16(%rbp)
	movq	%rdx, -24(%rbp)
	movq	%rcx, -32(%rbp)
	movq	-24(%rbp), %rdx
	movq	-16(%rbp), %rcx
	movq	-8(%rbp), %rax
	movq	%rcx, %rsi
	movq	%rax, %rdi
	call	_ZSt18uninitialized_copyIPKfPfET0_T_S4_S3_
	leave
	.cfi_def_cfa 7, 8
	ret
	.cfi_endproc
.LFE5584:
	.size	_ZSt22__uninitialized_copy_aIPKfPffET0_T_S4_S3_RSaIT1_E, .-_ZSt22__uninitialized_copy_aIPKfPffET0_T_S4_S3_RSaIT1_E
	.section	.text._ZSt8_DestroyIPfEvT_S1_,"axG",@progbits,_ZSt8_DestroyIPfEvT_S1_,comdat
	.weak	_ZSt8_DestroyIPfEvT_S1_
	.type	_ZSt8_DestroyIPfEvT_S1_, @function
_ZSt8_DestroyIPfEvT_S1_:
.LFB5585:
	.cfi_startproc
	endbr64
	pushq	%rbp
	.cfi_def_cfa_offset 16
	.cfi_offset 6, -16
	movq	%rsp, %rbp
	.cfi_def_cfa_register 6
	subq	$16, %rsp
	movq	%rdi, -8(%rbp)
	movq	%rsi, -16(%rbp)
	movq	-16(%rbp), %rdx
	movq	-8(%rbp), %rax
	movq	%rdx, %rsi
	movq	%rax, %rdi
	call	_ZNSt12_Destroy_auxILb1EE9__destroyIPfEEvT_S3_
	nop
	leave
	.cfi_def_cfa 7, 8
	ret
	.cfi_endproc
.LFE5585:
	.size	_ZSt8_DestroyIPfEvT_S1_, .-_ZSt8_DestroyIPfEvT_S1_
	.section	.text._ZNKSt12_Vector_baseIfSaIfEE13get_allocatorEv,"axG",@progbits,_ZNKSt12_Vector_baseIfSaIfEE13get_allocatorEv,comdat
	.align 2
	.weak	_ZNKSt12_Vector_baseIfSaIfEE13get_allocatorEv
	.type	_ZNKSt12_Vector_baseIfSaIfEE13get_allocatorEv, @function
_ZNKSt12_Vector_baseIfSaIfEE13get_allocatorEv:
.LFB5587:
	.cfi_startproc
	endbr64
	pushq	%rbp
	.cfi_def_cfa_offset 16
	.cfi_offset 6, -16
	movq	%rsp, %rbp
	.cfi_def_cfa_register 6
	subq	$16, %rsp
	movq	%rdi, -8(%rbp)
	movq	%rsi, -16(%rbp)
	movq	-16(%rbp), %rax
	movq	%rax, %rdi
	call	_ZNKSt12_Vector_baseIfSaIfEE19_M_get_Tp_allocatorEv
	movq	%rax, %rdx
	movq	-8(%rbp), %rax
	movq	%rdx, %rsi
	movq	%rax, %rdi
	call	_ZNSaIfEC1ERKS_
	movq	-8(%rbp), %rax
	leave
	.cfi_def_cfa 7, 8
	ret
	.cfi_endproc
.LFE5587:
	.size	_ZNKSt12_Vector_baseIfSaIfEE13get_allocatorEv, .-_ZNKSt12_Vector_baseIfSaIfEE13get_allocatorEv
	.section	.text._ZNSt6vectorIfSaIfEEC2ERKS0_,"axG",@progbits,_ZNSt6vectorIfSaIfEEC5ERKS0_,comdat
	.align 2
	.weak	_ZNSt6vectorIfSaIfEEC2ERKS0_
	.type	_ZNSt6vectorIfSaIfEEC2ERKS0_, @function
_ZNSt6vectorIfSaIfEEC2ERKS0_:
.LFB5589:
	.cfi_startproc
	endbr64
	pushq	%rbp
	.cfi_def_cfa_offset 16
	.cfi_offset 6, -16
	movq	%rsp, %rbp
	.cfi_def_cfa_register 6
	subq	$16, %rsp
	movq	%rdi, -8(%rbp)
	movq	%rsi, -16(%rbp)
	movq	-8(%rbp), %rax
	movq	-16(%rbp), %rdx
	movq	%rdx, %rsi
	movq	%rax, %rdi
	call	_ZNSt12_Vector_baseIfSaIfEEC2ERKS0_
	nop
	leave
	.cfi_def_cfa 7, 8
	ret
	.cfi_endproc
.LFE5589:
	.size	_ZNSt6vectorIfSaIfEEC2ERKS0_, .-_ZNSt6vectorIfSaIfEEC2ERKS0_
	.weak	_ZNSt6vectorIfSaIfEEC1ERKS0_
	.set	_ZNSt6vectorIfSaIfEEC1ERKS0_,_ZNSt6vectorIfSaIfEEC2ERKS0_
	.section	.text._ZNSt12_Vector_baseIfSaIfEE17_Vector_impl_data12_M_swap_dataERS2_,"axG",@progbits,_ZNSt12_Vector_baseIfSaIfEE17_Vector_impl_data12_M_swap_dataERS2_,comdat
	.align 2
	.weak	_ZNSt12_Vector_baseIfSaIfEE17_Vector_impl_data12_M_swap_dataERS2_
	.type	_ZNSt12_Vector_baseIfSaIfEE17_Vector_impl_data12_M_swap_dataERS2_, @function
_ZNSt12_Vector_baseIfSaIfEE17_Vector_impl_data12_M_swap_dataERS2_:
.LFB5591:
	.cfi_startproc
	endbr64
	pushq	%rbp
	.cfi_def_cfa_offset 16
	.cfi_offset 6, -16
	movq	%rsp, %rbp
	.cfi_def_cfa_register 6
	subq	$48, %rsp
	movq	%rdi, -40(%rbp)
	movq	%rsi, -48(%rbp)
	movq	%fs:40, %rax
	movq	%rax, -8(%rbp)
	xorl	%eax, %eax
	leaq	-32(%rbp), %rax
	movq	%rax, %rdi
	call	_ZNSt12_Vector_baseIfSaIfEE17_Vector_impl_dataC1Ev
	movq	-40(%rbp), %rdx
	leaq	-32(%rbp), %rax
	movq	%rdx, %rsi
	movq	%rax, %rdi
	call	_ZNSt12_Vector_baseIfSaIfEE17_Vector_impl_data12_M_copy_dataERKS2_
	movq	-48(%rbp), %rdx
	movq	-40(%rbp), %rax
	movq	%rdx, %rsi
	movq	%rax, %rdi
	call	_ZNSt12_Vector_baseIfSaIfEE17_Vector_impl_data12_M_copy_dataERKS2_
	leaq	-32(%rbp), %rdx
	movq	-48(%rbp), %rax
	movq	%rdx, %rsi
	movq	%rax, %rdi
	call	_ZNSt12_Vector_baseIfSaIfEE17_Vector_impl_data12_M_copy_dataERKS2_
	nop
	movq	-8(%rbp), %rax
	subq	%fs:40, %rax
	je	.L399
	call	__stack_chk_fail@PLT
.L399:
	leave
	.cfi_def_cfa 7, 8
	ret
	.cfi_endproc
.LFE5591:
	.size	_ZNSt12_Vector_baseIfSaIfEE17_Vector_impl_data12_M_swap_dataERS2_, .-_ZNSt12_Vector_baseIfSaIfEE17_Vector_impl_data12_M_swap_dataERS2_
	.section	.text._ZSt15__alloc_on_moveISaIfEEvRT_S2_,"axG",@progbits,_ZSt15__alloc_on_moveISaIfEEvRT_S2_,comdat
	.weak	_ZSt15__alloc_on_moveISaIfEEvRT_S2_
	.type	_ZSt15__alloc_on_moveISaIfEEvRT_S2_, @function
_ZSt15__alloc_on_moveISaIfEEvRT_S2_:
.LFB5592:
	.cfi_startproc
	endbr64
	pushq	%rbp
	.cfi_def_cfa_offset 16
	.cfi_offset 6, -16
	movq	%rsp, %rbp
	.cfi_def_cfa_register 6
	subq	$16, %rsp
	movq	%rdi, -8(%rbp)
	movq	%rsi, -16(%rbp)
	movq	-16(%rbp), %rax
	movq	%rax, %rdi
	call	_ZSt4moveIRSaIfEEONSt16remove_referenceIT_E4typeEOS3_
	nop
	leave
	.cfi_def_cfa 7, 8
	ret
	.cfi_endproc
.LFE5592:
	.size	_ZSt15__alloc_on_moveISaIfEEvRT_S2_, .-_ZSt15__alloc_on_moveISaIfEEvRT_S2_
	.section	.text._ZNSt6vectorIcSaIcEE11_S_max_sizeERKS0_,"axG",@progbits,_ZNSt6vectorIcSaIcEE11_S_max_sizeERKS0_,comdat
	.weak	_ZNSt6vectorIcSaIcEE11_S_max_sizeERKS0_
	.type	_ZNSt6vectorIcSaIcEE11_S_max_sizeERKS0_, @function
_ZNSt6vectorIcSaIcEE11_S_max_sizeERKS0_:
.LFB5594:
	.cfi_startproc
	endbr64
	pushq	%rbp
	.cfi_def_cfa_offset 16
	.cfi_offset 6, -16
	movq	%rsp, %rbp
	.cfi_def_cfa_register 6
	subq	$48, %rsp
	movq	%rdi, -40(%rbp)
	movq	%fs:40, %rax
	movq	%rax, -8(%rbp)
	xorl	%eax, %eax
	movabsq	$9223372036854775807, %rax
	movq	%rax, -24(%rbp)
	movq	-40(%rbp), %rax
	movq	%rax, %rdi
	call	_ZNSt16allocator_traitsISaIcEE8max_sizeERKS0_
	movq	%rax, -16(%rbp)
	leaq	-16(%rbp), %rdx
	leaq	-24(%rbp), %rax
	movq	%rdx, %rsi
	movq	%rax, %rdi
	call	_ZSt3minImERKT_S2_S2_
	movq	(%rax), %rax
	movq	-8(%rbp), %rdx
	subq	%fs:40, %rdx
	je	.L403
	call	__stack_chk_fail@PLT
.L403:
	leave
	.cfi_def_cfa 7, 8
	ret
	.cfi_endproc
.LFE5594:
	.size	_ZNSt6vectorIcSaIcEE11_S_max_sizeERKS0_, .-_ZNSt6vectorIcSaIcEE11_S_max_sizeERKS0_
	.section	.text._ZNSt12_Vector_baseIcSaIcEE12_Vector_implC2ERKS0_,"axG",@progbits,_ZNSt12_Vector_baseIcSaIcEE12_Vector_implC5ERKS0_,comdat
	.align 2
	.weak	_ZNSt12_Vector_baseIcSaIcEE12_Vector_implC2ERKS0_
	.type	_ZNSt12_Vector_baseIcSaIcEE12_Vector_implC2ERKS0_, @function
_ZNSt12_Vector_baseIcSaIcEE12_Vector_implC2ERKS0_:
.LFB5596:
	.cfi_startproc
	endbr64
	pushq	%rbp
	.cfi_def_cfa_offset 16
	.cfi_offset 6, -16
	movq	%rsp, %rbp
	.cfi_def_cfa_register 6
	subq	$16, %rsp
	movq	%rdi, -8(%rbp)
	movq	%rsi, -16(%rbp)
	movq	-16(%rbp), %rdx
	movq	-8(%rbp), %rax
	movq	%rdx, %rsi
	movq	%rax, %rdi
	call	_ZNSaIcEC2ERKS_@PLT
	movq	-8(%rbp), %rax
	movq	%rax, %rdi
	call	_ZNSt12_Vector_baseIcSaIcEE17_Vector_impl_dataC2Ev
	nop
	leave
	.cfi_def_cfa 7, 8
	ret
	.cfi_endproc
.LFE5596:
	.size	_ZNSt12_Vector_baseIcSaIcEE12_Vector_implC2ERKS0_, .-_ZNSt12_Vector_baseIcSaIcEE12_Vector_implC2ERKS0_
	.weak	_ZNSt12_Vector_baseIcSaIcEE12_Vector_implC1ERKS0_
	.set	_ZNSt12_Vector_baseIcSaIcEE12_Vector_implC1ERKS0_,_ZNSt12_Vector_baseIcSaIcEE12_Vector_implC2ERKS0_
	.section	.text._ZNSt12_Vector_baseIcSaIcEE17_M_create_storageEm,"axG",@progbits,_ZNSt12_Vector_baseIcSaIcEE17_M_create_storageEm,comdat
	.align 2
	.weak	_ZNSt12_Vector_baseIcSaIcEE17_M_create_storageEm
	.type	_ZNSt12_Vector_baseIcSaIcEE17_M_create_storageEm, @function
_ZNSt12_Vector_baseIcSaIcEE17_M_create_storageEm:
.LFB5598:
	.cfi_startproc
	endbr64
	pushq	%rbp
	.cfi_def_cfa_offset 16
	.cfi_offset 6, -16
	movq	%rsp, %rbp
	.cfi_def_cfa_register 6
	subq	$16, %rsp
	movq	%rdi, -8(%rbp)
	movq	%rsi, -16(%rbp)
	movq	-16(%rbp), %rdx
	movq	-8(%rbp), %rax
	movq	%rdx, %rsi
	movq	%rax, %rdi
	call	_ZNSt12_Vector_baseIcSaIcEE11_M_allocateEm
	movq	-8(%rbp), %rdx
	movq	%rax, (%rdx)
	movq	-8(%rbp), %rax
	movq	(%rax), %rdx
	movq	-8(%rbp), %rax
	movq	%rdx, 8(%rax)
	movq	-8(%rbp), %rax
	movq	(%rax), %rdx
	movq	-16(%rbp), %rax
	addq	%rax, %rdx
	movq	-8(%rbp), %rax
	movq	%rdx, 16(%rax)
	nop
	leave
	.cfi_def_cfa 7, 8
	ret
	.cfi_endproc
.LFE5598:
	.size	_ZNSt12_Vector_baseIcSaIcEE17_M_create_storageEm, .-_ZNSt12_Vector_baseIcSaIcEE17_M_create_storageEm
	.section	.text._ZNSt12_Vector_baseIcSaIcEE13_M_deallocateEPcm,"axG",@progbits,_ZNSt12_Vector_baseIcSaIcEE13_M_deallocateEPcm,comdat
	.align 2
	.weak	_ZNSt12_Vector_baseIcSaIcEE13_M_deallocateEPcm
	.type	_ZNSt12_Vector_baseIcSaIcEE13_M_deallocateEPcm, @function
_ZNSt12_Vector_baseIcSaIcEE13_M_deallocateEPcm:
.LFB5599:
	.cfi_startproc
	endbr64
	pushq	%rbp
	.cfi_def_cfa_offset 16
	.cfi_offset 6, -16
	movq	%rsp, %rbp
	.cfi_def_cfa_register 6
	subq	$32, %rsp
	movq	%rdi, -8(%rbp)
	movq	%rsi, -16(%rbp)
	movq	%rdx, -24(%rbp)
	cmpq	$0, -16(%rbp)
	je	.L408
	movq	-8(%rbp), %rax
	movq	-24(%rbp), %rdx
	movq	-16(%rbp), %rcx
	movq	%rcx, %rsi
	movq	%rax, %rdi
	call	_ZNSt16allocator_traitsISaIcEE10deallocateERS0_Pcm
.L408:
	nop
	leave
	.cfi_def_cfa 7, 8
	ret
	.cfi_endproc
.LFE5599:
	.size	_ZNSt12_Vector_baseIcSaIcEE13_M_deallocateEPcm, .-_ZNSt12_Vector_baseIcSaIcEE13_M_deallocateEPcm
	.section	.text._ZSt27__uninitialized_default_n_aIPcmcET_S1_T0_RSaIT1_E,"axG",@progbits,_ZSt27__uninitialized_default_n_aIPcmcET_S1_T0_RSaIT1_E,comdat
	.weak	_ZSt27__uninitialized_default_n_aIPcmcET_S1_T0_RSaIT1_E
	.type	_ZSt27__uninitialized_default_n_aIPcmcET_S1_T0_RSaIT1_E, @function
_ZSt27__uninitialized_default_n_aIPcmcET_S1_T0_RSaIT1_E:
.LFB5600:
	.cfi_startproc
	endbr64
	pushq	%rbp
	.cfi_def_cfa_offset 16
	.cfi_offset 6, -16
	movq	%rsp, %rbp
	.cfi_def_cfa_register 6
	subq	$32, %rsp
	movq	%rdi, -8(%rbp)
	movq	%rsi, -16(%rbp)
	movq	%rdx, -24(%rbp)
	movq	-16(%rbp), %rdx
	movq	-8(%rbp), %rax
	movq	%rdx, %rsi
	movq	%rax, %rdi
	call	_ZSt25__uninitialized_default_nIPcmET_S1_T0_
	leave
	.cfi_def_cfa 7, 8
	ret
	.cfi_endproc
.LFE5600:
	.size	_ZSt27__uninitialized_default_n_aIPcmcET_S1_T0_RSaIT1_E, .-_ZSt27__uninitialized_default_n_aIPcmcET_S1_T0_RSaIT1_E
	.section	.text._ZSt8_DestroyIPcEvT_S1_,"axG",@progbits,_ZSt8_DestroyIPcEvT_S1_,comdat
	.weak	_ZSt8_DestroyIPcEvT_S1_
	.type	_ZSt8_DestroyIPcEvT_S1_, @function
_ZSt8_DestroyIPcEvT_S1_:
.LFB5601:
	.cfi_startproc
	endbr64
	pushq	%rbp
	.cfi_def_cfa_offset 16
	.cfi_offset 6, -16
	movq	%rsp, %rbp
	.cfi_def_cfa_register 6
	subq	$16, %rsp
	movq	%rdi, -8(%rbp)
	movq	%rsi, -16(%rbp)
	movq	-16(%rbp), %rdx
	movq	-8(%rbp), %rax
	movq	%rdx, %rsi
	movq	%rax, %rdi
	call	_ZNSt12_Destroy_auxILb1EE9__destroyIPcEEvT_S3_
	nop
	leave
	.cfi_def_cfa 7, 8
	ret
	.cfi_endproc
.LFE5601:
	.size	_ZSt8_DestroyIPcEvT_S1_, .-_ZSt8_DestroyIPcEvT_S1_
	.section	.text._ZN9__gnu_cxx13new_allocatorISt13_Rb_tree_nodeISt4pairIKNSt7__cxx1112basic_stringIcSt11char_traitsIcESaIcEEESt6vectorIfSaIfEEEEEC2Ev,"axG",@progbits,_ZN9__gnu_cxx13new_allocatorISt13_Rb_tree_nodeISt4pairIKNSt7__cxx1112basic_stringIcSt11char_traitsIcESaIcEEESt6vectorIfSaIfEEEEEC5Ev,comdat
	.align 2
	.weak	_ZN9__gnu_cxx13new_allocatorISt13_Rb_tree_nodeISt4pairIKNSt7__cxx1112basic_stringIcSt11char_traitsIcESaIcEEESt6vectorIfSaIfEEEEEC2Ev
	.type	_ZN9__gnu_cxx13new_allocatorISt13_Rb_tree_nodeISt4pairIKNSt7__cxx1112basic_stringIcSt11char_traitsIcESaIcEEESt6vectorIfSaIfEEEEEC2Ev, @function
_ZN9__gnu_cxx13new_allocatorISt13_Rb_tree_nodeISt4pairIKNSt7__cxx1112basic_stringIcSt11char_traitsIcESaIcEEESt6vectorIfSaIfEEEEEC2Ev:
.LFB5603:
	.cfi_startproc
	endbr64
	pushq	%rbp
	.cfi_def_cfa_offset 16
	.cfi_offset 6, -16
	movq	%rsp, %rbp
	.cfi_def_cfa_register 6
	movq	%rdi, -8(%rbp)
	nop
	popq	%rbp
	.cfi_def_cfa 7, 8
	ret
	.cfi_endproc
.LFE5603:
	.size	_ZN9__gnu_cxx13new_allocatorISt13_Rb_tree_nodeISt4pairIKNSt7__cxx1112basic_stringIcSt11char_traitsIcESaIcEEESt6vectorIfSaIfEEEEEC2Ev, .-_ZN9__gnu_cxx13new_allocatorISt13_Rb_tree_nodeISt4pairIKNSt7__cxx1112basic_stringIcSt11char_traitsIcESaIcEEESt6vectorIfSaIfEEEEEC2Ev
	.weak	_ZN9__gnu_cxx13new_allocatorISt13_Rb_tree_nodeISt4pairIKNSt7__cxx1112basic_stringIcSt11char_traitsIcESaIcEEESt6vectorIfSaIfEEEEEC1Ev
	.set	_ZN9__gnu_cxx13new_allocatorISt13_Rb_tree_nodeISt4pairIKNSt7__cxx1112basic_stringIcSt11char_traitsIcESaIcEEESt6vectorIfSaIfEEEEEC1Ev,_ZN9__gnu_cxx13new_allocatorISt13_Rb_tree_nodeISt4pairIKNSt7__cxx1112basic_stringIcSt11char_traitsIcESaIcEEESt6vectorIfSaIfEEEEEC2Ev
	.section	.text._ZNSt8_Rb_treeINSt7__cxx1112basic_stringIcSt11char_traitsIcESaIcEEESt4pairIKS5_St6vectorIfSaIfEEESt10_Select1stISB_ESt4lessIS5_ESaISB_EE8_S_rightEPSt18_Rb_tree_node_base,"axG",@progbits,_ZNSt8_Rb_treeINSt7__cxx1112basic_stringIcSt11char_traitsIcESaIcEEESt4pairIKS5_St6vectorIfSaIfEEESt10_Select1stISB_ESt4lessIS5_ESaISB_EE8_S_rightEPSt18_Rb_tree_node_base,comdat
	.weak	_ZNSt8_Rb_treeINSt7__cxx1112basic_stringIcSt11char_traitsIcESaIcEEESt4pairIKS5_St6vectorIfSaIfEEESt10_Select1stISB_ESt4lessIS5_ESaISB_EE8_S_rightEPSt18_Rb_tree_node_base
	.type	_ZNSt8_Rb_treeINSt7__cxx1112basic_stringIcSt11char_traitsIcESaIcEEESt4pairIKS5_St6vectorIfSaIfEEESt10_Select1stISB_ESt4lessIS5_ESaISB_EE8_S_rightEPSt18_Rb_tree_node_base, @function
_ZNSt8_Rb_treeINSt7__cxx1112basic_stringIcSt11char_traitsIcESaIcEEESt4pairIKS5_St6vectorIfSaIfEEESt10_Select1stISB_ESt4lessIS5_ESaISB_EE8_S_rightEPSt18_Rb_tree_node_base:
.LFB5605:
	.cfi_startproc
	endbr64
	pushq	%rbp
	.cfi_def_cfa_offset 16
	.cfi_offset 6, -16
	movq	%rsp, %rbp
	.cfi_def_cfa_register 6
	movq	%rdi, -8(%rbp)
	movq	-8(%rbp), %rax
	movq	24(%rax), %rax
	popq	%rbp
	.cfi_def_cfa 7, 8
	ret
	.cfi_endproc
.LFE5605:
	.size	_ZNSt8_Rb_treeINSt7__cxx1112basic_stringIcSt11char_traitsIcESaIcEEESt4pairIKS5_St6vectorIfSaIfEEESt10_Select1stISB_ESt4lessIS5_ESaISB_EE8_S_rightEPSt18_Rb_tree_node_base, .-_ZNSt8_Rb_treeINSt7__cxx1112basic_stringIcSt11char_traitsIcESaIcEEESt4pairIKS5_St6vectorIfSaIfEEESt10_Select1stISB_ESt4lessIS5_ESaISB_EE8_S_rightEPSt18_Rb_tree_node_base
	.section	.text._ZNSt8_Rb_treeINSt7__cxx1112basic_stringIcSt11char_traitsIcESaIcEEESt4pairIKS5_St6vectorIfSaIfEEESt10_Select1stISB_ESt4lessIS5_ESaISB_EE7_S_leftEPSt18_Rb_tree_node_base,"axG",@progbits,_ZNSt8_Rb_treeINSt7__cxx1112basic_stringIcSt11char_traitsIcESaIcEEESt4pairIKS5_St6vectorIfSaIfEEESt10_Select1stISB_ESt4lessIS5_ESaISB_EE7_S_leftEPSt18_Rb_tree_node_base,comdat
	.weak	_ZNSt8_Rb_treeINSt7__cxx1112basic_stringIcSt11char_traitsIcESaIcEEESt4pairIKS5_St6vectorIfSaIfEEESt10_Select1stISB_ESt4lessIS5_ESaISB_EE7_S_leftEPSt18_Rb_tree_node_base
	.type	_ZNSt8_Rb_treeINSt7__cxx1112basic_stringIcSt11char_traitsIcESaIcEEESt4pairIKS5_St6vectorIfSaIfEEESt10_Select1stISB_ESt4lessIS5_ESaISB_EE7_S_leftEPSt18_Rb_tree_node_base, @function
_ZNSt8_Rb_treeINSt7__cxx1112basic_stringIcSt11char_traitsIcESaIcEEESt4pairIKS5_St6vectorIfSaIfEEESt10_Select1stISB_ESt4lessIS5_ESaISB_EE7_S_leftEPSt18_Rb_tree_node_base:
.LFB5606:
	.cfi_startproc
	endbr64
	pushq	%rbp
	.cfi_def_cfa_offset 16
	.cfi_offset 6, -16
	movq	%rsp, %rbp
	.cfi_def_cfa_register 6
	movq	%rdi, -8(%rbp)
	movq	-8(%rbp), %rax
	movq	16(%rax), %rax
	popq	%rbp
	.cfi_def_cfa 7, 8
	ret
	.cfi_endproc
.LFE5606:
	.size	_ZNSt8_Rb_treeINSt7__cxx1112basic_stringIcSt11char_traitsIcESaIcEEESt4pairIKS5_St6vectorIfSaIfEEESt10_Select1stISB_ESt4lessIS5_ESaISB_EE7_S_leftEPSt18_Rb_tree_node_base, .-_ZNSt8_Rb_treeINSt7__cxx1112basic_stringIcSt11char_traitsIcESaIcEEESt4pairIKS5_St6vectorIfSaIfEEESt10_Select1stISB_ESt4lessIS5_ESaISB_EE7_S_leftEPSt18_Rb_tree_node_base
	.section	.text._ZNKSt8_Rb_treeINSt7__cxx1112basic_stringIcSt11char_traitsIcESaIcEEESt4pairIKS5_St6vectorIfSaIfEEESt10_Select1stISB_ESt4lessIS5_ESaISB_EE9_M_mbeginEv,"axG",@progbits,_ZNKSt8_Rb_treeINSt7__cxx1112basic_stringIcSt11char_traitsIcESaIcEEESt4pairIKS5_St6vectorIfSaIfEEESt10_Select1stISB_ESt4lessIS5_ESaISB_EE9_M_mbeginEv,comdat
	.align 2
	.weak	_ZNKSt8_Rb_treeINSt7__cxx1112basic_stringIcSt11char_traitsIcESaIcEEESt4pairIKS5_St6vectorIfSaIfEEESt10_Select1stISB_ESt4lessIS5_ESaISB_EE9_M_mbeginEv
	.type	_ZNKSt8_Rb_treeINSt7__cxx1112basic_stringIcSt11char_traitsIcESaIcEEESt4pairIKS5_St6vectorIfSaIfEEESt10_Select1stISB_ESt4lessIS5_ESaISB_EE9_M_mbeginEv, @function
_ZNKSt8_Rb_treeINSt7__cxx1112basic_stringIcSt11char_traitsIcESaIcEEESt4pairIKS5_St6vectorIfSaIfEEESt10_Select1stISB_ESt4lessIS5_ESaISB_EE9_M_mbeginEv:
.LFB5607:
	.cfi_startproc
	endbr64
	pushq	%rbp
	.cfi_def_cfa_offset 16
	.cfi_offset 6, -16
	movq	%rsp, %rbp
	.cfi_def_cfa_register 6
	movq	%rdi, -8(%rbp)
	movq	-8(%rbp), %rax
	movq	16(%rax), %rax
	popq	%rbp
	.cfi_def_cfa 7, 8
	ret
	.cfi_endproc
.LFE5607:
	.size	_ZNKSt8_Rb_treeINSt7__cxx1112basic_stringIcSt11char_traitsIcESaIcEEESt4pairIKS5_St6vectorIfSaIfEEESt10_Select1stISB_ESt4lessIS5_ESaISB_EE9_M_mbeginEv, .-_ZNKSt8_Rb_treeINSt7__cxx1112basic_stringIcSt11char_traitsIcESaIcEEESt4pairIKS5_St6vectorIfSaIfEEESt10_Select1stISB_ESt4lessIS5_ESaISB_EE9_M_mbeginEv
	.section	.text._ZSt12__niter_baseIPcNSt7__cxx1112basic_stringIcSt11char_traitsIcESaIcEEEET_N9__gnu_cxx17__normal_iteratorIS7_T0_EE,"axG",@progbits,_ZSt12__niter_baseIPcNSt7__cxx1112basic_stringIcSt11char_traitsIcESaIcEEEET_N9__gnu_cxx17__normal_iteratorIS7_T0_EE,comdat
	.weak	_ZSt12__niter_baseIPcNSt7__cxx1112basic_stringIcSt11char_traitsIcESaIcEEEET_N9__gnu_cxx17__normal_iteratorIS7_T0_EE
	.type	_ZSt12__niter_baseIPcNSt7__cxx1112basic_stringIcSt11char_traitsIcESaIcEEEET_N9__gnu_cxx17__normal_iteratorIS7_T0_EE, @function
_ZSt12__niter_baseIPcNSt7__cxx1112basic_stringIcSt11char_traitsIcESaIcEEEET_N9__gnu_cxx17__normal_iteratorIS7_T0_EE:
.LFB5608:
	.cfi_startproc
	endbr64
	pushq	%rbp
	.cfi_def_cfa_offset 16
	.cfi_offset 6, -16
	movq	%rsp, %rbp
	.cfi_def_cfa_register 6
	subq	$16, %rsp
	movq	%rdi, -8(%rbp)
	leaq	-8(%rbp), %rax
	movq	%rax, %rdi
	call	_ZNK9__gnu_cxx17__normal_iteratorIPcNSt7__cxx1112basic_stringIcSt11char_traitsIcESaIcEEEE4baseEv
	movq	(%rax), %rax
	leave
	.cfi_def_cfa 7, 8
	ret
	.cfi_endproc
.LFE5608:
	.size	_ZSt12__niter_baseIPcNSt7__cxx1112basic_stringIcSt11char_traitsIcESaIcEEEET_N9__gnu_cxx17__normal_iteratorIS7_T0_EE, .-_ZSt12__niter_baseIPcNSt7__cxx1112basic_stringIcSt11char_traitsIcESaIcEEEET_N9__gnu_cxx17__normal_iteratorIS7_T0_EE
	.section	.text._ZSt12__niter_baseIPcSt6vectorIcSaIcEEET_N9__gnu_cxx17__normal_iteratorIS4_T0_EE,"axG",@progbits,_ZSt12__niter_baseIPcSt6vectorIcSaIcEEET_N9__gnu_cxx17__normal_iteratorIS4_T0_EE,comdat
	.weak	_ZSt12__niter_baseIPcSt6vectorIcSaIcEEET_N9__gnu_cxx17__normal_iteratorIS4_T0_EE
	.type	_ZSt12__niter_baseIPcSt6vectorIcSaIcEEET_N9__gnu_cxx17__normal_iteratorIS4_T0_EE, @function
_ZSt12__niter_baseIPcSt6vectorIcSaIcEEET_N9__gnu_cxx17__normal_iteratorIS4_T0_EE:
.LFB5609:
	.cfi_startproc
	endbr64
	pushq	%rbp
	.cfi_def_cfa_offset 16
	.cfi_offset 6, -16
	movq	%rsp, %rbp
	.cfi_def_cfa_register 6
	subq	$16, %rsp
	movq	%rdi, -8(%rbp)
	leaq	-8(%rbp), %rax
	movq	%rax, %rdi
	call	_ZNK9__gnu_cxx17__normal_iteratorIPcSt6vectorIcSaIcEEE4baseEv
	movq	(%rax), %rax
	leave
	.cfi_def_cfa 7, 8
	ret
	.cfi_endproc
.LFE5609:
	.size	_ZSt12__niter_baseIPcSt6vectorIcSaIcEEET_N9__gnu_cxx17__normal_iteratorIS4_T0_EE, .-_ZSt12__niter_baseIPcSt6vectorIcSaIcEEET_N9__gnu_cxx17__normal_iteratorIS4_T0_EE
	.section	.text._ZSt14__copy_move_a1ILb0EPcS0_ET1_T0_S2_S1_,"axG",@progbits,_ZSt14__copy_move_a1ILb0EPcS0_ET1_T0_S2_S1_,comdat
	.weak	_ZSt14__copy_move_a1ILb0EPcS0_ET1_T0_S2_S1_
	.type	_ZSt14__copy_move_a1ILb0EPcS0_ET1_T0_S2_S1_, @function
_ZSt14__copy_move_a1ILb0EPcS0_ET1_T0_S2_S1_:
.LFB5610:
	.cfi_startproc
	endbr64
	pushq	%rbp
	.cfi_def_cfa_offset 16
	.cfi_offset 6, -16
	movq	%rsp, %rbp
	.cfi_def_cfa_register 6
	subq	$32, %rsp
	movq	%rdi, -8(%rbp)
	movq	%rsi, -16(%rbp)
	movq	%rdx, -24(%rbp)
	movq	-24(%rbp), %rdx
	movq	-16(%rbp), %rcx
	movq	-8(%rbp), %rax
	movq	%rcx, %rsi
	movq	%rax, %rdi
	call	_ZSt14__copy_move_a2ILb0EPcS0_ET1_T0_S2_S1_
	leave
	.cfi_def_cfa 7, 8
	ret
	.cfi_endproc
.LFE5610:
	.size	_ZSt14__copy_move_a1ILb0EPcS0_ET1_T0_S2_S1_, .-_ZSt14__copy_move_a1ILb0EPcS0_ET1_T0_S2_S1_
	.section	.text._ZSt12__niter_wrapIN9__gnu_cxx17__normal_iteratorIPcSt6vectorIcSaIcEEEES2_ET_S7_T0_,"axG",@progbits,_ZSt12__niter_wrapIN9__gnu_cxx17__normal_iteratorIPcSt6vectorIcSaIcEEEES2_ET_S7_T0_,comdat
	.weak	_ZSt12__niter_wrapIN9__gnu_cxx17__normal_iteratorIPcSt6vectorIcSaIcEEEES2_ET_S7_T0_
	.type	_ZSt12__niter_wrapIN9__gnu_cxx17__normal_iteratorIPcSt6vectorIcSaIcEEEES2_ET_S7_T0_, @function
_ZSt12__niter_wrapIN9__gnu_cxx17__normal_iteratorIPcSt6vectorIcSaIcEEEES2_ET_S7_T0_:
.LFB5611:
	.cfi_startproc
	endbr64
	pushq	%rbp
	.cfi_def_cfa_offset 16
	.cfi_offset 6, -16
	movq	%rsp, %rbp
	.cfi_def_cfa_register 6
	subq	$16, %rsp
	movq	%rdi, -8(%rbp)
	movq	%rsi, -16(%rbp)
	movq	-8(%rbp), %rax
	movq	%rax, %rdi
	call	_ZSt12__niter_baseIPcSt6vectorIcSaIcEEET_N9__gnu_cxx17__normal_iteratorIS4_T0_EE
	movq	%rax, %rcx
	movq	-16(%rbp), %rax
	subq	%rcx, %rax
	movq	%rax, %rdx
	leaq	-8(%rbp), %rax
	movq	%rdx, %rsi
	movq	%rax, %rdi
	call	_ZNK9__gnu_cxx17__normal_iteratorIPcSt6vectorIcSaIcEEEplEl
	leave
	.cfi_def_cfa 7, 8
	ret
	.cfi_endproc
.LFE5611:
	.size	_ZSt12__niter_wrapIN9__gnu_cxx17__normal_iteratorIPcSt6vectorIcSaIcEEEES2_ET_S7_T0_, .-_ZSt12__niter_wrapIN9__gnu_cxx17__normal_iteratorIPcSt6vectorIcSaIcEEEES2_ET_S7_T0_
	.section	.text._ZSt12__get_helperILm0EPNSt10filesystem7__cxx114path5_List5_ImplEJNS3_13_Impl_deleterEEERT0_RSt11_Tuple_implIXT_EJS7_DpT1_EE,"axG",@progbits,_ZSt12__get_helperILm0EPNSt10filesystem7__cxx114path5_List5_ImplEJNS3_13_Impl_deleterEEERT0_RSt11_Tuple_implIXT_EJS7_DpT1_EE,comdat
	.weak	_ZSt12__get_helperILm0EPNSt10filesystem7__cxx114path5_List5_ImplEJNS3_13_Impl_deleterEEERT0_RSt11_Tuple_implIXT_EJS7_DpT1_EE
	.type	_ZSt12__get_helperILm0EPNSt10filesystem7__cxx114path5_List5_ImplEJNS3_13_Impl_deleterEEERT0_RSt11_Tuple_implIXT_EJS7_DpT1_EE, @function
_ZSt12__get_helperILm0EPNSt10filesystem7__cxx114path5_List5_ImplEJNS3_13_Impl_deleterEEERT0_RSt11_Tuple_implIXT_EJS7_DpT1_EE:
.LFB5663:
	.cfi_startproc
	endbr64
	pushq	%rbp
	.cfi_def_cfa_offset 16
	.cfi_offset 6, -16
	movq	%rsp, %rbp
	.cfi_def_cfa_register 6
	subq	$16, %rsp
	movq	%rdi, -8(%rbp)
	movq	-8(%rbp), %rax
	movq	%rax, %rdi
	call	_ZNSt11_Tuple_implILm0EJPNSt10filesystem7__cxx114path5_List5_ImplENS3_13_Impl_deleterEEE7_M_headERS7_
	leave
	.cfi_def_cfa 7, 8
	ret
	.cfi_endproc
.LFE5663:
	.size	_ZSt12__get_helperILm0EPNSt10filesystem7__cxx114path5_List5_ImplEJNS3_13_Impl_deleterEEERT0_RSt11_Tuple_implIXT_EJS7_DpT1_EE, .-_ZSt12__get_helperILm0EPNSt10filesystem7__cxx114path5_List5_ImplEJNS3_13_Impl_deleterEEERT0_RSt11_Tuple_implIXT_EJS7_DpT1_EE
	.section	.text._ZN9__gnu_cxx13new_allocatorIcE10deallocateEPcm,"axG",@progbits,_ZN9__gnu_cxx13new_allocatorIcE10deallocateEPcm,comdat
	.align 2
	.weak	_ZN9__gnu_cxx13new_allocatorIcE10deallocateEPcm
	.type	_ZN9__gnu_cxx13new_allocatorIcE10deallocateEPcm, @function
_ZN9__gnu_cxx13new_allocatorIcE10deallocateEPcm:
.LFB5667:
	.cfi_startproc
	endbr64
	pushq	%rbp
	.cfi_def_cfa_offset 16
	.cfi_offset 6, -16
	movq	%rsp, %rbp
	.cfi_def_cfa_register 6
	subq	$32, %rsp
	movq	%rdi, -8(%rbp)
	movq	%rsi, -16(%rbp)
	movq	%rdx, -24(%rbp)
	movq	-24(%rbp), %rdx
	movq	-16(%rbp), %rax
	movq	%rdx, %rsi
	movq	%rax, %rdi
	call	_ZdlPvm@PLT
	leave
	.cfi_def_cfa 7, 8
	ret
	.cfi_endproc
.LFE5667:
	.size	_ZN9__gnu_cxx13new_allocatorIcE10deallocateEPcm, .-_ZN9__gnu_cxx13new_allocatorIcE10deallocateEPcm
	.section	.text._ZNK9__gnu_cxx13new_allocatorIcE11_M_max_sizeEv,"axG",@progbits,_ZNK9__gnu_cxx13new_allocatorIcE11_M_max_sizeEv,comdat
	.align 2
	.weak	_ZNK9__gnu_cxx13new_allocatorIcE11_M_max_sizeEv
	.type	_ZNK9__gnu_cxx13new_allocatorIcE11_M_max_sizeEv, @function
_ZNK9__gnu_cxx13new_allocatorIcE11_M_max_sizeEv:
.LFB5669:
	.cfi_startproc
	endbr64
	pushq	%rbp
	.cfi_def_cfa_offset 16
	.cfi_offset 6, -16
	movq	%rsp, %rbp
	.cfi_def_cfa_register 6
	movq	%rdi, -8(%rbp)
	movabsq	$9223372036854775807, %rax
	popq	%rbp
	.cfi_def_cfa 7, 8
	ret
	.cfi_endproc
.LFE5669:
	.size	_ZNK9__gnu_cxx13new_allocatorIcE11_M_max_sizeEv, .-_ZNK9__gnu_cxx13new_allocatorIcE11_M_max_sizeEv
	.section	.text._ZN9__gnu_cxx13new_allocatorIcE8allocateEmPKv,"axG",@progbits,_ZN9__gnu_cxx13new_allocatorIcE8allocateEmPKv,comdat
	.align 2
	.weak	_ZN9__gnu_cxx13new_allocatorIcE8allocateEmPKv
	.type	_ZN9__gnu_cxx13new_allocatorIcE8allocateEmPKv, @function
_ZN9__gnu_cxx13new_allocatorIcE8allocateEmPKv:
.LFB5668:
	.cfi_startproc
	endbr64
	pushq	%rbp
	.cfi_def_cfa_offset 16
	.cfi_offset 6, -16
	movq	%rsp, %rbp
	.cfi_def_cfa_register 6
	subq	$32, %rsp
	movq	%rdi, -8(%rbp)
	movq	%rsi, -16(%rbp)
	movq	%rdx, -24(%rbp)
	movq	-8(%rbp), %rax
	movq	%rax, %rdi
	call	_ZNK9__gnu_cxx13new_allocatorIcE11_M_max_sizeEv
	cmpq	%rax, -16(%rbp)
	seta	%al
	movzbl	%al, %eax
	testq	%rax, %rax
	setne	%al
	testb	%al, %al
	je	.L434
	call	_ZSt17__throw_bad_allocv@PLT
.L434:
	movq	-16(%rbp), %rax
	movq	%rax, %rdi
	call	_Znwm@PLT
	nop
	leave
	.cfi_def_cfa 7, 8
	ret
	.cfi_endproc
.LFE5668:
	.size	_ZN9__gnu_cxx13new_allocatorIcE8allocateEmPKv, .-_ZN9__gnu_cxx13new_allocatorIcE8allocateEmPKv
	.section	.text._ZSt12__get_helperILm1ENSt10filesystem7__cxx114path5_List13_Impl_deleterEJEERT0_RSt11_Tuple_implIXT_EJS5_DpT1_EE,"axG",@progbits,_ZSt12__get_helperILm1ENSt10filesystem7__cxx114path5_List13_Impl_deleterEJEERT0_RSt11_Tuple_implIXT_EJS5_DpT1_EE,comdat
	.weak	_ZSt12__get_helperILm1ENSt10filesystem7__cxx114path5_List13_Impl_deleterEJEERT0_RSt11_Tuple_implIXT_EJS5_DpT1_EE
	.type	_ZSt12__get_helperILm1ENSt10filesystem7__cxx114path5_List13_Impl_deleterEJEERT0_RSt11_Tuple_implIXT_EJS5_DpT1_EE, @function
_ZSt12__get_helperILm1ENSt10filesystem7__cxx114path5_List13_Impl_deleterEJEERT0_RSt11_Tuple_implIXT_EJS5_DpT1_EE:
.LFB5670:
	.cfi_startproc
	endbr64
	pushq	%rbp
	.cfi_def_cfa_offset 16
	.cfi_offset 6, -16
	movq	%rsp, %rbp
	.cfi_def_cfa_register 6
	subq	$16, %rsp
	movq	%rdi, -8(%rbp)
	movq	-8(%rbp), %rax
	movq	%rax, %rdi
	call	_ZNSt11_Tuple_implILm1EJNSt10filesystem7__cxx114path5_List13_Impl_deleterEEE7_M_headERS5_
	leave
	.cfi_def_cfa 7, 8
	ret
	.cfi_endproc
.LFE5670:
	.size	_ZSt12__get_helperILm1ENSt10filesystem7__cxx114path5_List13_Impl_deleterEJEERT0_RSt11_Tuple_implIXT_EJS5_DpT1_EE, .-_ZSt12__get_helperILm1ENSt10filesystem7__cxx114path5_List13_Impl_deleterEJEERT0_RSt11_Tuple_implIXT_EJS5_DpT1_EE
	.section	.text._ZN9__gnu_cxx16__aligned_membufISt4pairIKNSt7__cxx1112basic_stringIcSt11char_traitsIcESaIcEEESt6vectorIfSaIfEEEE7_M_addrEv,"axG",@progbits,_ZN9__gnu_cxx16__aligned_membufISt4pairIKNSt7__cxx1112basic_stringIcSt11char_traitsIcESaIcEEESt6vectorIfSaIfEEEE7_M_addrEv,comdat
	.align 2
	.weak	_ZN9__gnu_cxx16__aligned_membufISt4pairIKNSt7__cxx1112basic_stringIcSt11char_traitsIcESaIcEEESt6vectorIfSaIfEEEE7_M_addrEv
	.type	_ZN9__gnu_cxx16__aligned_membufISt4pairIKNSt7__cxx1112basic_stringIcSt11char_traitsIcESaIcEEESt6vectorIfSaIfEEEE7_M_addrEv, @function
_ZN9__gnu_cxx16__aligned_membufISt4pairIKNSt7__cxx1112basic_stringIcSt11char_traitsIcESaIcEEESt6vectorIfSaIfEEEE7_M_addrEv:
.LFB5704:
	.cfi_startproc
	endbr64
	pushq	%rbp
	.cfi_def_cfa_offset 16
	.cfi_offset 6, -16
	movq	%rsp, %rbp
	.cfi_def_cfa_register 6
	movq	%rdi, -8(%rbp)
	movq	-8(%rbp), %rax
	popq	%rbp
	.cfi_def_cfa 7, 8
	ret
	.cfi_endproc
.LFE5704:
	.size	_ZN9__gnu_cxx16__aligned_membufISt4pairIKNSt7__cxx1112basic_stringIcSt11char_traitsIcESaIcEEESt6vectorIfSaIfEEEE7_M_addrEv, .-_ZN9__gnu_cxx16__aligned_membufISt4pairIKNSt7__cxx1112basic_stringIcSt11char_traitsIcESaIcEEESt6vectorIfSaIfEEEE7_M_addrEv
	.section	.text._ZNSt10_Head_baseILm0ERKNSt7__cxx1112basic_stringIcSt11char_traitsIcESaIcEEELb0EEC2ES7_,"axG",@progbits,_ZNSt10_Head_baseILm0ERKNSt7__cxx1112basic_stringIcSt11char_traitsIcESaIcEEELb0EEC5ES7_,comdat
	.align 2
	.weak	_ZNSt10_Head_baseILm0ERKNSt7__cxx1112basic_stringIcSt11char_traitsIcESaIcEEELb0EEC2ES7_
	.type	_ZNSt10_Head_baseILm0ERKNSt7__cxx1112basic_stringIcSt11char_traitsIcESaIcEEELb0EEC2ES7_, @function
_ZNSt10_Head_baseILm0ERKNSt7__cxx1112basic_stringIcSt11char_traitsIcESaIcEEELb0EEC2ES7_:
.LFB5707:
	.cfi_startproc
	endbr64
	pushq	%rbp
	.cfi_def_cfa_offset 16
	.cfi_offset 6, -16
	movq	%rsp, %rbp
	.cfi_def_cfa_register 6
	movq	%rdi, -8(%rbp)
	movq	%rsi, -16(%rbp)
	movq	-8(%rbp), %rax
	movq	-16(%rbp), %rdx
	movq	%rdx, (%rax)
	nop
	popq	%rbp
	.cfi_def_cfa 7, 8
	ret
	.cfi_endproc
.LFE5707:
	.size	_ZNSt10_Head_baseILm0ERKNSt7__cxx1112basic_stringIcSt11char_traitsIcESaIcEEELb0EEC2ES7_, .-_ZNSt10_Head_baseILm0ERKNSt7__cxx1112basic_stringIcSt11char_traitsIcESaIcEEELb0EEC2ES7_
